
sinsonte.elf:     file format elf32-littlearm

Sections:
Idx Name          Size      VMA       LMA       File off  Algn
  0 .boot2        00000100  10000000  10000000  00010000  2**0
                  CONTENTS, ALLOC, LOAD, READONLY, CODE
  1 .text         00003440  10000100  10000100  00010100  2**3
                  CONTENTS, ALLOC, LOAD, READONLY, CODE
  2 .rodata       000e586c  10003540  10003540  00013540  2**2
                  CONTENTS, ALLOC, LOAD, READONLY, DATA
  3 .binary_info  00000024  100e8dac  100e8dac  000f8dac  2**2
                  CONTENTS, ALLOC, LOAD, DATA
  4 .ram_vector_table 000000c0  20000000  20000000  00100a64  2**2
                  CONTENTS
  5 .data         000009a4  200000c0  100e8dd0  001000c0  2**4
                  CONTENTS, ALLOC, LOAD, CODE
  6 .uninitialized_data 00000000  20000a64  20000a64  00100b24  2**0
                  CONTENTS
  7 .scratch_x    00000000  20040000  20040000  00100b24  2**0
                  CONTENTS
  8 .scratch_y    00000000  20041000  20041000  00100b24  2**0
                  CONTENTS
  9 .bss          000002dc  20000a64  20000a64  00100a64  2**2
                  ALLOC
 10 .heap         00000800  20000d40  20000d40  00100b24  2**2
                  CONTENTS, READONLY
 11 .stack_dummy  00000800  20041000  20041000  00101340  2**5
                  CONTENTS, READONLY
 12 .ARM.attributes 00000028  00000000  00000000  00101b40  2**0
                  CONTENTS, READONLY
 13 .comment      000000a7  00000000  00000000  00101b68  2**0
                  CONTENTS, READONLY
 14 .debug_line   00001b14  00000000  00000000  00101c0f  2**0
                  CONTENTS, READONLY, DEBUGGING, OCTETS
 15 .debug_info   0000767b  00000000  00000000  00103723  2**0
                  CONTENTS, READONLY, DEBUGGING, OCTETS
 16 .debug_abbrev 00001966  00000000  00000000  0010ad9e  2**0
                  CONTENTS, READONLY, DEBUGGING, OCTETS
 17 .debug_aranges 00000178  00000000  00000000  0010c708  2**3
                  CONTENTS, READONLY, DEBUGGING, OCTETS
 18 .debug_str    00000b51  00000000  00000000  0010c880  2**0
                  CONTENTS, READONLY, DEBUGGING, OCTETS
 19 .debug_loc    000019a6  00000000  00000000  0010d3d1  2**0
                  CONTENTS, READONLY, DEBUGGING, OCTETS
 20 .debug_frame  00000228  00000000  00000000  0010ed78  2**2
                  CONTENTS, READONLY, DEBUGGING, OCTETS
 21 .debug_ranges 00000078  00000000  00000000  0010efa0  2**0
                  CONTENTS, READONLY, DEBUGGING, OCTETS

sinsonte.elf:     file format elf32-littlearm


Disassembly of section .boot2:

10000000 <__boot2_start__>:
10000000:	4b32b500 	.word	0x4b32b500
10000004:	60582021 	.word	0x60582021
10000008:	21026898 	.word	0x21026898
1000000c:	60984388 	.word	0x60984388
10000010:	611860d8 	.word	0x611860d8
10000014:	4b2e6158 	.word	0x4b2e6158
10000018:	60992100 	.word	0x60992100
1000001c:	61592102 	.word	0x61592102
10000020:	22f02101 	.word	0x22f02101
10000024:	492b5099 	.word	0x492b5099
10000028:	21016019 	.word	0x21016019
1000002c:	20356099 	.word	0x20356099
10000030:	f844f000 	.word	0xf844f000
10000034:	42902202 	.word	0x42902202
10000038:	2106d014 	.word	0x2106d014
1000003c:	f0006619 	.word	0xf0006619
10000040:	6e19f834 	.word	0x6e19f834
10000044:	66192101 	.word	0x66192101
10000048:	66182000 	.word	0x66182000
1000004c:	f000661a 	.word	0xf000661a
10000050:	6e19f82c 	.word	0x6e19f82c
10000054:	6e196e19 	.word	0x6e196e19
10000058:	f0002005 	.word	0xf0002005
1000005c:	2101f82f 	.word	0x2101f82f
10000060:	d1f94208 	.word	0xd1f94208
10000064:	60992100 	.word	0x60992100
10000068:	6019491b 	.word	0x6019491b
1000006c:	60592100 	.word	0x60592100
10000070:	481b491a 	.word	0x481b491a
10000074:	21016001 	.word	0x21016001
10000078:	21eb6099 	.word	0x21eb6099
1000007c:	21a06619 	.word	0x21a06619
10000080:	f0006619 	.word	0xf0006619
10000084:	2100f812 	.word	0x2100f812
10000088:	49166099 	.word	0x49166099
1000008c:	60014814 	.word	0x60014814
10000090:	60992101 	.word	0x60992101
10000094:	2800bc01 	.word	0x2800bc01
10000098:	4700d000 	.word	0x4700d000
1000009c:	49134812 	.word	0x49134812
100000a0:	c8036008 	.word	0xc8036008
100000a4:	8808f380 	.word	0x8808f380
100000a8:	b5034708 	.word	0xb5034708
100000ac:	20046a99 	.word	0x20046a99
100000b0:	d0fb4201 	.word	0xd0fb4201
100000b4:	42012001 	.word	0x42012001
100000b8:	bd03d1f8 	.word	0xbd03d1f8
100000bc:	6618b502 	.word	0x6618b502
100000c0:	f7ff6618 	.word	0xf7ff6618
100000c4:	6e18fff2 	.word	0x6e18fff2
100000c8:	bd026e18 	.word	0xbd026e18
100000cc:	40020000 	.word	0x40020000
100000d0:	18000000 	.word	0x18000000
100000d4:	00070000 	.word	0x00070000
100000d8:	005f0300 	.word	0x005f0300
100000dc:	00002221 	.word	0x00002221
100000e0:	180000f4 	.word	0x180000f4
100000e4:	a0002022 	.word	0xa0002022
100000e8:	10000100 	.word	0x10000100
100000ec:	e000ed08 	.word	0xe000ed08
	...
100000fc:	7a4eb274 	.word	0x7a4eb274

Disassembly of section .text:

10000100 <__logical_binary_start>:
10000100:	20042000 	.word	0x20042000
10000104:	100001f7 	.word	0x100001f7
10000108:	100001c3 	.word	0x100001c3
1000010c:	100001c5 	.word	0x100001c5
10000110:	100001c1 	.word	0x100001c1
10000114:	100001c1 	.word	0x100001c1
10000118:	100001c1 	.word	0x100001c1
1000011c:	100001c1 	.word	0x100001c1
10000120:	100001c1 	.word	0x100001c1
10000124:	100001c1 	.word	0x100001c1
10000128:	100001c1 	.word	0x100001c1
1000012c:	100001c7 	.word	0x100001c7
10000130:	100001c1 	.word	0x100001c1
10000134:	100001c1 	.word	0x100001c1
10000138:	100001c9 	.word	0x100001c9
1000013c:	100001cb 	.word	0x100001cb
10000140:	100001cd 	.word	0x100001cd
10000144:	100001cd 	.word	0x100001cd
10000148:	100001cd 	.word	0x100001cd
1000014c:	100001cd 	.word	0x100001cd
10000150:	100001cd 	.word	0x100001cd
10000154:	100001cd 	.word	0x100001cd
10000158:	100001cd 	.word	0x100001cd
1000015c:	100001cd 	.word	0x100001cd
10000160:	100001cd 	.word	0x100001cd
10000164:	100001cd 	.word	0x100001cd
10000168:	100001cd 	.word	0x100001cd
1000016c:	100001cd 	.word	0x100001cd
10000170:	100001cd 	.word	0x100001cd
10000174:	100001cd 	.word	0x100001cd
10000178:	100001cd 	.word	0x100001cd
1000017c:	100001cd 	.word	0x100001cd
10000180:	100001cd 	.word	0x100001cd
10000184:	100001cd 	.word	0x100001cd
10000188:	100001cd 	.word	0x100001cd
1000018c:	100001cd 	.word	0x100001cd
10000190:	100001cd 	.word	0x100001cd
10000194:	100001cd 	.word	0x100001cd
10000198:	100001cd 	.word	0x100001cd
1000019c:	100001cd 	.word	0x100001cd
100001a0:	100001cd 	.word	0x100001cd
100001a4:	100001cd 	.word	0x100001cd
100001a8:	100001cd 	.word	0x100001cd
100001ac:	100001cd 	.word	0x100001cd
100001b0:	100001cd 	.word	0x100001cd
100001b4:	100001cd 	.word	0x100001cd
100001b8:	100001cd 	.word	0x100001cd
100001bc:	100001cd 	.word	0x100001cd

100001c0 <isr_invalid>:
100001c0:	be00      	bkpt	0x0000

100001c2 <isr_nmi>:
100001c2:	be00      	bkpt	0x0000

100001c4 <isr_hardfault>:
100001c4:	be00      	bkpt	0x0000

100001c6 <isr_svcall>:
100001c6:	be00      	bkpt	0x0000

100001c8 <isr_pendsv>:
100001c8:	be00      	bkpt	0x0000

100001ca <isr_systick>:
100001ca:	be00      	bkpt	0x0000

100001cc <__unhandled_user_irq>:
100001cc:	f000 f84b 	bl	10000266 <__get_current_exception>
100001d0:	3810      	subs	r0, #16

100001d2 <unhandled_user_irq_num_in_r0>:
100001d2:	be00      	bkpt	0x0000

100001d4 <binary_info_header>:
100001d4:	7188ebf2 	.word	0x7188ebf2
100001d8:	100e8dac 	.word	0x100e8dac
100001dc:	100e8dd0 	.word	0x100e8dd0
100001e0:	10000234 	.word	0x10000234
100001e4:	e71aa390 	.word	0xe71aa390

100001e8 <_entry_point>:
100001e8:	2000      	movs	r0, #0
100001ea:	4921      	ldr	r1, [pc, #132]	; (10000270 <__get_current_exception+0xa>)
100001ec:	6008      	str	r0, [r1, #0]
100001ee:	c806      	ldmia	r0!, {r1, r2}
100001f0:	f381 8808 	msr	MSP, r1
100001f4:	4710      	bx	r2

100001f6 <_reset_handler>:
100001f6:	481f      	ldr	r0, [pc, #124]	; (10000274 <__get_current_exception+0xe>)
100001f8:	6800      	ldr	r0, [r0, #0]
100001fa:	2800      	cmp	r0, #0
100001fc:	d12f      	bne.n	1000025e <hold_non_core0_in_bootrom>
100001fe:	a40d      	add	r4, pc, #52	; (adr r4, 10000234 <data_cpy_table>)
10000200:	cc0e      	ldmia	r4!, {r1, r2, r3}
10000202:	2900      	cmp	r1, #0
10000204:	d002      	beq.n	1000020c <_reset_handler+0x16>
10000206:	f000 f812 	bl	1000022e <data_cpy>
1000020a:	e7f9      	b.n	10000200 <_reset_handler+0xa>
1000020c:	491a      	ldr	r1, [pc, #104]	; (10000278 <__get_current_exception+0x12>)
1000020e:	4a1b      	ldr	r2, [pc, #108]	; (1000027c <__get_current_exception+0x16>)
10000210:	2000      	movs	r0, #0
10000212:	e000      	b.n	10000216 <bss_fill_test>

10000214 <bss_fill_loop>:
10000214:	c101      	stmia	r1!, {r0}

10000216 <bss_fill_test>:
10000216:	4291      	cmp	r1, r2
10000218:	d1fc      	bne.n	10000214 <bss_fill_loop>

1000021a <platform_entry>:
1000021a:	4919      	ldr	r1, [pc, #100]	; (10000280 <__get_current_exception+0x1a>)
1000021c:	4788      	blx	r1
1000021e:	4919      	ldr	r1, [pc, #100]	; (10000284 <__get_current_exception+0x1e>)
10000220:	4788      	blx	r1
10000222:	4919      	ldr	r1, [pc, #100]	; (10000288 <__get_current_exception+0x22>)
10000224:	4788      	blx	r1
10000226:	be00      	bkpt	0x0000
10000228:	e7fd      	b.n	10000226 <platform_entry+0xc>

1000022a <data_cpy_loop>:
1000022a:	c901      	ldmia	r1!, {r0}
1000022c:	c201      	stmia	r2!, {r0}

1000022e <data_cpy>:
1000022e:	429a      	cmp	r2, r3
10000230:	d3fb      	bcc.n	1000022a <data_cpy_loop>
10000232:	4770      	bx	lr

10000234 <data_cpy_table>:
10000234:	100e8dd0 	.word	0x100e8dd0
10000238:	200000c0 	.word	0x200000c0
1000023c:	20000a64 	.word	0x20000a64
10000240:	100e9774 	.word	0x100e9774
10000244:	20040000 	.word	0x20040000
10000248:	20040000 	.word	0x20040000
1000024c:	100e9774 	.word	0x100e9774
10000250:	20041000 	.word	0x20041000
10000254:	20041000 	.word	0x20041000
10000258:	00000000 	.word	0x00000000
1000025c:	4770      	bx	lr

1000025e <hold_non_core0_in_bootrom>:
1000025e:	480b      	ldr	r0, [pc, #44]	; (1000028c <__get_current_exception+0x26>)
10000260:	f001 ff14 	bl	1000208c <rom_func_lookup>
10000264:	4700      	bx	r0

10000266 <__get_current_exception>:
10000266:	f3ef 8005 	mrs	r0, IPSR
1000026a:	b2c0      	uxtb	r0, r0
1000026c:	4770      	bx	lr
1000026e:	0000      	.short	0x0000
10000270:	e000ed08 	.word	0xe000ed08
10000274:	d0000000 	.word	0xd0000000
10000278:	20000a64 	.word	0x20000a64
1000027c:	20000d40 	.word	0x20000d40
10000280:	10001735 	.word	0x10001735
10000284:	100003f1 	.word	0x100003f1
10000288:	10001855 	.word	0x10001855
1000028c:	00005657 	.word	0x00005657

10000290 <__bi_46>:
10000290:	50520006 5360b3ab 100e8d1c              ..RP..`S....

1000029c <__bi_34>:
1000029c:	50520006 02031c86 100e8d2c              ..RP....,...

100002a8 <__bi_26>:
100002a8:	50520006 9da22254 100e8d38              ..RPT"..8...

100002b4 <__bi_18>:
100002b4:	50520005 68f465de 100e9774              ..RP.e.ht...

100002c0 <_init>:
100002c0:	b5f8      	push	{r3, r4, r5, r6, r7, lr}
100002c2:	46c0      	nop			; (mov r8, r8)

100002c4 <deregister_tm_clones>:
100002c4:	4804      	ldr	r0, [pc, #16]	; (100002d8 <deregister_tm_clones+0x14>)
100002c6:	4b05      	ldr	r3, [pc, #20]	; (100002dc <deregister_tm_clones+0x18>)
100002c8:	b510      	push	{r4, lr}
100002ca:	4283      	cmp	r3, r0
100002cc:	d003      	beq.n	100002d6 <deregister_tm_clones+0x12>
100002ce:	4b04      	ldr	r3, [pc, #16]	; (100002e0 <deregister_tm_clones+0x1c>)
100002d0:	2b00      	cmp	r3, #0
100002d2:	d000      	beq.n	100002d6 <deregister_tm_clones+0x12>
100002d4:	4798      	blx	r3
100002d6:	bd10      	pop	{r4, pc}
100002d8:	20000a64 	.word	0x20000a64
100002dc:	20000a64 	.word	0x20000a64
100002e0:	00000000 	.word	0x00000000

100002e4 <register_tm_clones>:
100002e4:	4806      	ldr	r0, [pc, #24]	; (10000300 <register_tm_clones+0x1c>)
100002e6:	4907      	ldr	r1, [pc, #28]	; (10000304 <register_tm_clones+0x20>)
100002e8:	1a09      	subs	r1, r1, r0
100002ea:	108b      	asrs	r3, r1, #2
100002ec:	0fc9      	lsrs	r1, r1, #31
100002ee:	18c9      	adds	r1, r1, r3
100002f0:	b510      	push	{r4, lr}
100002f2:	1049      	asrs	r1, r1, #1
100002f4:	d003      	beq.n	100002fe <register_tm_clones+0x1a>
100002f6:	4b04      	ldr	r3, [pc, #16]	; (10000308 <register_tm_clones+0x24>)
100002f8:	2b00      	cmp	r3, #0
100002fa:	d000      	beq.n	100002fe <register_tm_clones+0x1a>
100002fc:	4798      	blx	r3
100002fe:	bd10      	pop	{r4, pc}
10000300:	20000a64 	.word	0x20000a64
10000304:	20000a64 	.word	0x20000a64
10000308:	00000000 	.word	0x00000000

1000030c <__do_global_dtors_aux>:
1000030c:	b510      	push	{r4, lr}
1000030e:	4c07      	ldr	r4, [pc, #28]	; (1000032c <__do_global_dtors_aux+0x20>)
10000310:	7823      	ldrb	r3, [r4, #0]
10000312:	2b00      	cmp	r3, #0
10000314:	d109      	bne.n	1000032a <__do_global_dtors_aux+0x1e>
10000316:	f7ff ffd5 	bl	100002c4 <deregister_tm_clones>
1000031a:	4b05      	ldr	r3, [pc, #20]	; (10000330 <__do_global_dtors_aux+0x24>)
1000031c:	2b00      	cmp	r3, #0
1000031e:	d002      	beq.n	10000326 <__do_global_dtors_aux+0x1a>
10000320:	4804      	ldr	r0, [pc, #16]	; (10000334 <__do_global_dtors_aux+0x28>)
10000322:	e000      	b.n	10000326 <__do_global_dtors_aux+0x1a>
10000324:	bf00      	nop
10000326:	2301      	movs	r3, #1
10000328:	7023      	strb	r3, [r4, #0]
1000032a:	bd10      	pop	{r4, pc}
1000032c:	20000a64 	.word	0x20000a64
10000330:	00000000 	.word	0x00000000
10000334:	10003540 	.word	0x10003540

10000338 <frame_dummy>:
10000338:	4b05      	ldr	r3, [pc, #20]	; (10000350 <frame_dummy+0x18>)
1000033a:	b510      	push	{r4, lr}
1000033c:	2b00      	cmp	r3, #0
1000033e:	d003      	beq.n	10000348 <frame_dummy+0x10>
10000340:	4904      	ldr	r1, [pc, #16]	; (10000354 <frame_dummy+0x1c>)
10000342:	4805      	ldr	r0, [pc, #20]	; (10000358 <frame_dummy+0x20>)
10000344:	e000      	b.n	10000348 <frame_dummy+0x10>
10000346:	bf00      	nop
10000348:	f7ff ffcc 	bl	100002e4 <register_tm_clones>
1000034c:	bd10      	pop	{r4, pc}
1000034e:	46c0      	nop			; (mov r8, r8)
10000350:	00000000 	.word	0x00000000
10000354:	20000a68 	.word	0x20000a68
10000358:	10003540 	.word	0x10003540

1000035c <pwm_interrupt_handler>:
1000035c:	23a4      	movs	r3, #164	; 0xa4
1000035e:	2140      	movs	r1, #64	; 0x40
10000360:	4a1b      	ldr	r2, [pc, #108]	; (100003d0 <pwm_interrupt_handler+0x74>)
10000362:	b530      	push	{r4, r5, lr}
10000364:	50d1      	str	r1, [r2, r3]
10000366:	4b1b      	ldr	r3, [pc, #108]	; (100003d4 <pwm_interrupt_handler+0x78>)
10000368:	491b      	ldr	r1, [pc, #108]	; (100003d8 <pwm_interrupt_handler+0x7c>)
1000036a:	681b      	ldr	r3, [r3, #0]
1000036c:	680a      	ldr	r2, [r1, #0]
1000036e:	00db      	lsls	r3, r3, #3
10000370:	3b01      	subs	r3, #1
10000372:	4293      	cmp	r3, r2
10000374:	d90c      	bls.n	10000390 <pwm_interrupt_handler+0x34>
10000376:	4b19      	ldr	r3, [pc, #100]	; (100003dc <pwm_interrupt_handler+0x80>)
10000378:	781b      	ldrb	r3, [r3, #0]
1000037a:	2b00      	cmp	r3, #0
1000037c:	d00d      	beq.n	1000039a <pwm_interrupt_handler+0x3e>
1000037e:	4b18      	ldr	r3, [pc, #96]	; (100003e0 <pwm_interrupt_handler+0x84>)
10000380:	4818      	ldr	r0, [pc, #96]	; (100003e4 <pwm_interrupt_handler+0x88>)
10000382:	681b      	ldr	r3, [r3, #0]
10000384:	041b      	lsls	r3, r3, #16
10000386:	0c1b      	lsrs	r3, r3, #16
10000388:	6003      	str	r3, [r0, #0]
1000038a:	3201      	adds	r2, #1
1000038c:	600a      	str	r2, [r1, #0]
1000038e:	e003      	b.n	10000398 <pwm_interrupt_handler+0x3c>
10000390:	2300      	movs	r3, #0
10000392:	4a15      	ldr	r2, [pc, #84]	; (100003e8 <pwm_interrupt_handler+0x8c>)
10000394:	600b      	str	r3, [r1, #0]
10000396:	7013      	strb	r3, [r2, #0]
10000398:	bd30      	pop	{r4, r5, pc}
1000039a:	4b14      	ldr	r3, [pc, #80]	; (100003ec <pwm_interrupt_handler+0x90>)
1000039c:	10d0      	asrs	r0, r2, #3
1000039e:	681c      	ldr	r4, [r3, #0]
100003a0:	4b0f      	ldr	r3, [pc, #60]	; (100003e0 <pwm_interrupt_handler+0x84>)
100003a2:	681d      	ldr	r5, [r3, #0]
100003a4:	5c23      	ldrb	r3, [r4, r0]
100003a6:	406b      	eors	r3, r5
100003a8:	041b      	lsls	r3, r3, #16
100003aa:	4d0e      	ldr	r5, [pc, #56]	; (100003e4 <pwm_interrupt_handler+0x88>)
100003ac:	0c1b      	lsrs	r3, r3, #16
100003ae:	602b      	str	r3, [r5, #0]
100003b0:	5c23      	ldrb	r3, [r4, r0]
100003b2:	2b80      	cmp	r3, #128	; 0x80
100003b4:	d905      	bls.n	100003c2 <pwm_interrupt_handler+0x66>
100003b6:	23d0      	movs	r3, #208	; 0xd0
100003b8:	2080      	movs	r0, #128	; 0x80
100003ba:	061b      	lsls	r3, r3, #24
100003bc:	00c0      	lsls	r0, r0, #3
100003be:	6158      	str	r0, [r3, #20]
100003c0:	e7e3      	b.n	1000038a <pwm_interrupt_handler+0x2e>
100003c2:	23d0      	movs	r3, #208	; 0xd0
100003c4:	2080      	movs	r0, #128	; 0x80
100003c6:	061b      	lsls	r3, r3, #24
100003c8:	00c0      	lsls	r0, r0, #3
100003ca:	6198      	str	r0, [r3, #24]
100003cc:	e7dd      	b.n	1000038a <pwm_interrupt_handler+0x2e>
100003ce:	46c0      	nop			; (mov r8, r8)
100003d0:	40050000 	.word	0x40050000
100003d4:	20000b30 	.word	0x20000b30
100003d8:	20000b20 	.word	0x20000b20
100003dc:	20000b27 	.word	0x20000b27
100003e0:	40050084 	.word	0x40050084
100003e4:	40051084 	.word	0x40051084
100003e8:	20000b28 	.word	0x20000b28
100003ec:	20000b2c 	.word	0x20000b2c

100003f0 <main>:
100003f0:	b5f0      	push	{r4, r5, r6, r7, lr}
100003f2:	46ce      	mov	lr, r9
100003f4:	4647      	mov	r7, r8
100003f6:	b580      	push	{r7, lr}
100003f8:	4b8d      	ldr	r3, [pc, #564]	; (10000630 <main+0x240>)
100003fa:	4e8e      	ldr	r6, [pc, #568]	; (10000634 <main+0x244>)
100003fc:	4d8e      	ldr	r5, [pc, #568]	; (10000638 <main+0x248>)
100003fe:	6033      	str	r3, [r6, #0]
10000400:	4698      	mov	r8, r3
10000402:	4b8e      	ldr	r3, [pc, #568]	; (1000063c <main+0x24c>)
10000404:	b085      	sub	sp, #20
10000406:	602b      	str	r3, [r5, #0]
10000408:	f002 fb34 	bl	10002a74 <stdio_init_all>
1000040c:	488c      	ldr	r0, [pc, #560]	; (10000640 <main+0x250>)
1000040e:	ab03      	add	r3, sp, #12
10000410:	aa02      	add	r2, sp, #8
10000412:	a901      	add	r1, sp, #4
10000414:	f000 f99e 	bl	10000754 <check_sys_clock_khz>
10000418:	2800      	cmp	r0, #0
1000041a:	d103      	bne.n	10000424 <main+0x34>
1000041c:	4988      	ldr	r1, [pc, #544]	; (10000640 <main+0x250>)
1000041e:	4889      	ldr	r0, [pc, #548]	; (10000644 <main+0x254>)
10000420:	f001 fa1a 	bl	10001858 <panic>
10000424:	9a03      	ldr	r2, [sp, #12]
10000426:	9902      	ldr	r1, [sp, #8]
10000428:	9801      	ldr	r0, [sp, #4]
1000042a:	f000 f955 	bl	100006d8 <set_sys_clock_pll>
1000042e:	2104      	movs	r1, #4
10000430:	201c      	movs	r0, #28
10000432:	f000 fa45 	bl	100008c0 <gpio_set_function>
10000436:	2340      	movs	r3, #64	; 0x40
10000438:	22a4      	movs	r2, #164	; 0xa4
1000043a:	4f83      	ldr	r7, [pc, #524]	; (10000648 <main+0x258>)
1000043c:	2004      	movs	r0, #4
1000043e:	50bb      	str	r3, [r7, r2]
10000440:	4a82      	ldr	r2, [pc, #520]	; (1000064c <main+0x25c>)
10000442:	4983      	ldr	r1, [pc, #524]	; (10000650 <main+0x260>)
10000444:	6013      	str	r3, [r2, #0]
10000446:	f001 fc73 	bl	10001d30 <irq_set_exclusive_handler>
1000044a:	2101      	movs	r1, #1
1000044c:	2004      	movs	r0, #4
1000044e:	f001 fc55 	bl	10001cfc <irq_set_enabled>
10000452:	2400      	movs	r4, #0
10000454:	2380      	movs	r3, #128	; 0x80
10000456:	22fa      	movs	r2, #250	; 0xfa
10000458:	67bc      	str	r4, [r7, #120]	; 0x78
1000045a:	50fc      	str	r4, [r7, r3]
1000045c:	3304      	adds	r3, #4
1000045e:	50fc      	str	r4, [r7, r3]
10000460:	3304      	adds	r3, #4
10000462:	50fa      	str	r2, [r7, r3]
10000464:	3b68      	subs	r3, #104	; 0x68
10000466:	67fb      	str	r3, [r7, #124]	; 0x7c
10000468:	3b1f      	subs	r3, #31
1000046a:	67bb      	str	r3, [r7, #120]	; 0x78
1000046c:	2019      	movs	r0, #25
1000046e:	4699      	mov	r9, r3
10000470:	27d0      	movs	r7, #208	; 0xd0
10000472:	f000 fa69 	bl	10000948 <gpio_init>
10000476:	2380      	movs	r3, #128	; 0x80
10000478:	063f      	lsls	r7, r7, #24
1000047a:	049b      	lsls	r3, r3, #18
1000047c:	627b      	str	r3, [r7, #36]	; 0x24
1000047e:	200a      	movs	r0, #10
10000480:	617b      	str	r3, [r7, #20]
10000482:	f000 fa61 	bl	10000948 <gpio_init>
10000486:	2380      	movs	r3, #128	; 0x80
10000488:	00db      	lsls	r3, r3, #3
1000048a:	627b      	str	r3, [r7, #36]	; 0x24
1000048c:	200e      	movs	r0, #14
1000048e:	61bb      	str	r3, [r7, #24]
10000490:	f000 fa5a 	bl	10000948 <gpio_init>
10000494:	2380      	movs	r3, #128	; 0x80
10000496:	21e1      	movs	r1, #225	; 0xe1
10000498:	01db      	lsls	r3, r3, #7
1000049a:	627b      	str	r3, [r7, #36]	; 0x24
1000049c:	0249      	lsls	r1, r1, #9
1000049e:	61bb      	str	r3, [r7, #24]
100004a0:	486c      	ldr	r0, [pc, #432]	; (10000654 <main+0x264>)
100004a2:	f000 fac1 	bl	10000a28 <uart_init>
100004a6:	2102      	movs	r1, #2
100004a8:	0020      	movs	r0, r4
100004aa:	f000 fa09 	bl	100008c0 <gpio_set_function>
100004ae:	2102      	movs	r1, #2
100004b0:	4648      	mov	r0, r9
100004b2:	f000 fa05 	bl	100008c0 <gpio_set_function>
100004b6:	f002 fb3b 	bl	10002b30 <adc_init>
100004ba:	210f      	movs	r1, #15
100004bc:	201a      	movs	r0, #26
100004be:	f000 f9ff 	bl	100008c0 <gpio_set_function>
100004c2:	0022      	movs	r2, r4
100004c4:	0021      	movs	r1, r4
100004c6:	201a      	movs	r0, #26
100004c8:	f000 fa12 	bl	100008f0 <gpio_set_pulls>
100004cc:	0021      	movs	r1, r4
100004ce:	201a      	movs	r0, #26
100004d0:	f000 fa26 	bl	10000920 <gpio_set_input_enabled>
100004d4:	21e0      	movs	r1, #224	; 0xe0
100004d6:	4b60      	ldr	r3, [pc, #384]	; (10000658 <main+0x268>)
100004d8:	01c9      	lsls	r1, r1, #7
100004da:	681a      	ldr	r2, [r3, #0]
100004dc:	400a      	ands	r2, r1
100004de:	495f      	ldr	r1, [pc, #380]	; (1000065c <main+0x26c>)
100004e0:	600a      	str	r2, [r1, #0]
100004e2:	2104      	movs	r1, #4
100004e4:	4a5e      	ldr	r2, [pc, #376]	; (10000660 <main+0x270>)
100004e6:	6011      	str	r1, [r2, #0]
100004e8:	2280      	movs	r2, #128	; 0x80
100004ea:	0052      	lsls	r2, r2, #1
100004ec:	6819      	ldr	r1, [r3, #0]
100004ee:	4211      	tst	r1, r2
100004f0:	d0fc      	beq.n	100004ec <main+0xfc>
100004f2:	2102      	movs	r1, #2
100004f4:	4a5a      	ldr	r2, [pc, #360]	; (10000660 <main+0x270>)
100004f6:	685f      	ldr	r7, [r3, #4]
100004f8:	6011      	str	r1, [r2, #0]
100004fa:	6819      	ldr	r1, [r3, #0]
100004fc:	2380      	movs	r3, #128	; 0x80
100004fe:	01db      	lsls	r3, r3, #7
10000500:	404b      	eors	r3, r1
10000502:	21e0      	movs	r1, #224	; 0xe0
10000504:	01c9      	lsls	r1, r1, #7
10000506:	400b      	ands	r3, r1
10000508:	4954      	ldr	r1, [pc, #336]	; (1000065c <main+0x26c>)
1000050a:	600b      	str	r3, [r1, #0]
1000050c:	2304      	movs	r3, #4
1000050e:	6013      	str	r3, [r2, #0]
10000510:	2280      	movs	r2, #128	; 0x80
10000512:	4b51      	ldr	r3, [pc, #324]	; (10000658 <main+0x268>)
10000514:	0052      	lsls	r2, r2, #1
10000516:	6819      	ldr	r1, [r3, #0]
10000518:	4211      	tst	r1, r2
1000051a:	d0fc      	beq.n	10000516 <main+0x126>
1000051c:	6858      	ldr	r0, [r3, #4]
1000051e:	b280      	uxth	r0, r0
10000520:	f002 fe3a 	bl	10003198 <srand>
10000524:	f002 fe42 	bl	100031ac <rand>
10000528:	210b      	movs	r1, #11
1000052a:	f001 fddd 	bl	100020e8 <__wrap___aeabi_idiv>
1000052e:	4b4d      	ldr	r3, [pc, #308]	; (10000664 <main+0x274>)
10000530:	1c4c      	adds	r4, r1, #1
10000532:	b2e4      	uxtb	r4, r4
10000534:	701c      	strb	r4, [r3, #0]
10000536:	b2b8      	uxth	r0, r7
10000538:	f002 f90a 	bl	10002750 <__wrap___aeabi_i2f>
1000053c:	494a      	ldr	r1, [pc, #296]	; (10000668 <main+0x278>)
1000053e:	f002 f8d3 	bl	100026e8 <__wrap___aeabi_fmul>
10000542:	494a      	ldr	r1, [pc, #296]	; (1000066c <main+0x27c>)
10000544:	f002 f8fe 	bl	10002744 <__wrap___aeabi_fcmplt>
10000548:	1e43      	subs	r3, r0, #1
1000054a:	4198      	sbcs	r0, r3
1000054c:	4b48      	ldr	r3, [pc, #288]	; (10000670 <main+0x280>)
1000054e:	7018      	strb	r0, [r3, #0]
10000550:	2c00      	cmp	r4, #0
10000552:	d120      	bne.n	10000596 <main+0x1a6>
10000554:	4643      	mov	r3, r8
10000556:	6033      	str	r3, [r6, #0]
10000558:	4b38      	ldr	r3, [pc, #224]	; (1000063c <main+0x24c>)
1000055a:	602b      	str	r3, [r5, #0]
1000055c:	2301      	movs	r3, #1
1000055e:	4c45      	ldr	r4, [pc, #276]	; (10000674 <main+0x284>)
10000560:	4a45      	ldr	r2, [pc, #276]	; (10000678 <main+0x288>)
10000562:	7023      	strb	r3, [r4, #0]
10000564:	4b45      	ldr	r3, [pc, #276]	; (1000067c <main+0x28c>)
10000566:	681b      	ldr	r3, [r3, #0]
10000568:	b29b      	uxth	r3, r3
1000056a:	6013      	str	r3, [r2, #0]
1000056c:	2001      	movs	r0, #1
1000056e:	2100      	movs	r1, #0
10000570:	f000 fd2e 	bl	10000fd0 <sleep_us>
10000574:	7823      	ldrb	r3, [r4, #0]
10000576:	2b00      	cmp	r3, #0
10000578:	d1f8      	bne.n	1000056c <main+0x17c>
1000057a:	2100      	movs	r1, #0
1000057c:	2004      	movs	r0, #4
1000057e:	f001 fbbd 	bl	10001cfc <irq_set_enabled>
10000582:	23d0      	movs	r3, #208	; 0xd0
10000584:	2280      	movs	r2, #128	; 0x80
10000586:	061b      	lsls	r3, r3, #24
10000588:	01d2      	lsls	r2, r2, #7
1000058a:	615a      	str	r2, [r3, #20]
1000058c:	2001      	movs	r0, #1
1000058e:	2100      	movs	r1, #0
10000590:	f000 fd1e 	bl	10000fd0 <sleep_us>
10000594:	e7fa      	b.n	1000058c <main+0x19c>
10000596:	2c01      	cmp	r4, #1
10000598:	d104      	bne.n	100005a4 <main+0x1b4>
1000059a:	4b39      	ldr	r3, [pc, #228]	; (10000680 <main+0x290>)
1000059c:	6033      	str	r3, [r6, #0]
1000059e:	4b39      	ldr	r3, [pc, #228]	; (10000684 <main+0x294>)
100005a0:	602b      	str	r3, [r5, #0]
100005a2:	e7db      	b.n	1000055c <main+0x16c>
100005a4:	2c02      	cmp	r4, #2
100005a6:	d104      	bne.n	100005b2 <main+0x1c2>
100005a8:	4b37      	ldr	r3, [pc, #220]	; (10000688 <main+0x298>)
100005aa:	6033      	str	r3, [r6, #0]
100005ac:	4b37      	ldr	r3, [pc, #220]	; (1000068c <main+0x29c>)
100005ae:	602b      	str	r3, [r5, #0]
100005b0:	e7d4      	b.n	1000055c <main+0x16c>
100005b2:	2c03      	cmp	r4, #3
100005b4:	d104      	bne.n	100005c0 <main+0x1d0>
100005b6:	4b36      	ldr	r3, [pc, #216]	; (10000690 <main+0x2a0>)
100005b8:	6033      	str	r3, [r6, #0]
100005ba:	4b36      	ldr	r3, [pc, #216]	; (10000694 <main+0x2a4>)
100005bc:	602b      	str	r3, [r5, #0]
100005be:	e7cd      	b.n	1000055c <main+0x16c>
100005c0:	2c04      	cmp	r4, #4
100005c2:	d104      	bne.n	100005ce <main+0x1de>
100005c4:	4b34      	ldr	r3, [pc, #208]	; (10000698 <main+0x2a8>)
100005c6:	6033      	str	r3, [r6, #0]
100005c8:	4b34      	ldr	r3, [pc, #208]	; (1000069c <main+0x2ac>)
100005ca:	602b      	str	r3, [r5, #0]
100005cc:	e7c6      	b.n	1000055c <main+0x16c>
100005ce:	2c05      	cmp	r4, #5
100005d0:	d104      	bne.n	100005dc <main+0x1ec>
100005d2:	4b33      	ldr	r3, [pc, #204]	; (100006a0 <main+0x2b0>)
100005d4:	6033      	str	r3, [r6, #0]
100005d6:	4b33      	ldr	r3, [pc, #204]	; (100006a4 <main+0x2b4>)
100005d8:	602b      	str	r3, [r5, #0]
100005da:	e7bf      	b.n	1000055c <main+0x16c>
100005dc:	2c06      	cmp	r4, #6
100005de:	d104      	bne.n	100005ea <main+0x1fa>
100005e0:	4b31      	ldr	r3, [pc, #196]	; (100006a8 <main+0x2b8>)
100005e2:	6033      	str	r3, [r6, #0]
100005e4:	4b31      	ldr	r3, [pc, #196]	; (100006ac <main+0x2bc>)
100005e6:	602b      	str	r3, [r5, #0]
100005e8:	e7b8      	b.n	1000055c <main+0x16c>
100005ea:	2c07      	cmp	r4, #7
100005ec:	d104      	bne.n	100005f8 <main+0x208>
100005ee:	4b30      	ldr	r3, [pc, #192]	; (100006b0 <main+0x2c0>)
100005f0:	6033      	str	r3, [r6, #0]
100005f2:	4b30      	ldr	r3, [pc, #192]	; (100006b4 <main+0x2c4>)
100005f4:	602b      	str	r3, [r5, #0]
100005f6:	e7b1      	b.n	1000055c <main+0x16c>
100005f8:	2c08      	cmp	r4, #8
100005fa:	d104      	bne.n	10000606 <main+0x216>
100005fc:	4b2e      	ldr	r3, [pc, #184]	; (100006b8 <main+0x2c8>)
100005fe:	6033      	str	r3, [r6, #0]
10000600:	4b2e      	ldr	r3, [pc, #184]	; (100006bc <main+0x2cc>)
10000602:	602b      	str	r3, [r5, #0]
10000604:	e7aa      	b.n	1000055c <main+0x16c>
10000606:	2c09      	cmp	r4, #9
10000608:	d104      	bne.n	10000614 <main+0x224>
1000060a:	4b2d      	ldr	r3, [pc, #180]	; (100006c0 <main+0x2d0>)
1000060c:	6033      	str	r3, [r6, #0]
1000060e:	4b2d      	ldr	r3, [pc, #180]	; (100006c4 <main+0x2d4>)
10000610:	602b      	str	r3, [r5, #0]
10000612:	e7a3      	b.n	1000055c <main+0x16c>
10000614:	2c0a      	cmp	r4, #10
10000616:	d104      	bne.n	10000622 <main+0x232>
10000618:	4b2b      	ldr	r3, [pc, #172]	; (100006c8 <main+0x2d8>)
1000061a:	6033      	str	r3, [r6, #0]
1000061c:	4b2b      	ldr	r3, [pc, #172]	; (100006cc <main+0x2dc>)
1000061e:	602b      	str	r3, [r5, #0]
10000620:	e79c      	b.n	1000055c <main+0x16c>
10000622:	2c0b      	cmp	r4, #11
10000624:	d19a      	bne.n	1000055c <main+0x16c>
10000626:	4b2a      	ldr	r3, [pc, #168]	; (100006d0 <main+0x2e0>)
10000628:	6033      	str	r3, [r6, #0]
1000062a:	4b2a      	ldr	r3, [pc, #168]	; (100006d4 <main+0x2e4>)
1000062c:	602b      	str	r3, [r5, #0]
1000062e:	e795      	b.n	1000055c <main+0x16c>
10000630:	10044090 	.word	0x10044090
10000634:	20000b2c 	.word	0x20000b2c
10000638:	20000b30 	.word	0x20000b30
1000063c:	0000ebf6 	.word	0x0000ebf6
10000640:	0002af80 	.word	0x0002af80
10000644:	10003540 	.word	0x10003540
10000648:	40050000 	.word	0x40050000
1000064c:	400520a8 	.word	0x400520a8
10000650:	1000035d 	.word	0x1000035d
10000654:	40034000 	.word	0x40034000
10000658:	4004c000 	.word	0x4004c000
1000065c:	4004d000 	.word	0x4004d000
10000660:	4004e000 	.word	0x4004e000
10000664:	20000b25 	.word	0x20000b25
10000668:	3a533333 	.word	0x3a533333
1000066c:	3cfacc4f 	.word	0x3cfacc4f
10000670:	20000b27 	.word	0x20000b27
10000674:	20000b28 	.word	0x20000b28
10000678:	40051084 	.word	0x40051084
1000067c:	40050084 	.word	0x40050084
10000680:	10003574 	.word	0x10003574
10000684:	00015f1f 	.word	0x00015f1f
10000688:	10052c88 	.word	0x10052c88
1000068c:	000134c8 	.word	0x000134c8
10000690:	10066154 	.word	0x10066154
10000694:	00011178 	.word	0x00011178
10000698:	100772d0 	.word	0x100772d0
1000069c:	00011136 	.word	0x00011136
100006a0:	10088408 	.word	0x10088408
100006a4:	0000f669 	.word	0x0000f669
100006a8:	10097a74 	.word	0x10097a74
100006ac:	000106ff 	.word	0x000106ff
100006b0:	100a8174 	.word	0x100a8174
100006b4:	0001c196 	.word	0x0001c196
100006b8:	100c430c 	.word	0x100c430c
100006bc:	0000eb30 	.word	0x0000eb30
100006c0:	100d2e40 	.word	0x100d2e40
100006c4:	00015e8b 	.word	0x00015e8b
100006c8:	10019494 	.word	0x10019494
100006cc:	0001508e 	.word	0x0001508e
100006d0:	1002e524 	.word	0x1002e524
100006d4:	00015b6a 	.word	0x00015b6a

100006d8 <set_sys_clock_pll>:
100006d8:	b5f0      	push	{r4, r5, r6, r7, lr}
100006da:	b083      	sub	sp, #12
100006dc:	0006      	movs	r6, r0
100006de:	000c      	movs	r4, r1
100006e0:	0015      	movs	r5, r2
100006e2:	f000 f999 	bl	10000a18 <running_on_fpga>
100006e6:	2800      	cmp	r0, #0
100006e8:	d001      	beq.n	100006ee <set_sys_clock_pll+0x16>
100006ea:	b003      	add	sp, #12
100006ec:	bdf0      	pop	{r4, r5, r6, r7, pc}
100006ee:	4f16      	ldr	r7, [pc, #88]	; (10000748 <set_sys_clock_pll+0x70>)
100006f0:	2201      	movs	r2, #1
100006f2:	003b      	movs	r3, r7
100006f4:	2101      	movs	r1, #1
100006f6:	9700      	str	r7, [sp, #0]
100006f8:	3005      	adds	r0, #5
100006fa:	f001 f8cb 	bl	10001894 <clock_configure>
100006fe:	b2eb      	uxtb	r3, r5
10000700:	0032      	movs	r2, r6
10000702:	9300      	str	r3, [sp, #0]
10000704:	2101      	movs	r1, #1
10000706:	0023      	movs	r3, r4
10000708:	4810      	ldr	r0, [pc, #64]	; (1000074c <set_sys_clock_pll+0x74>)
1000070a:	f001 facd 	bl	10001ca8 <pll_init>
1000070e:	0021      	movs	r1, r4
10000710:	0030      	movs	r0, r6
10000712:	4369      	muls	r1, r5
10000714:	f001 fd14 	bl	10002140 <__wrap___aeabi_uidiv>
10000718:	0004      	movs	r4, r0
1000071a:	4b0d      	ldr	r3, [pc, #52]	; (10000750 <set_sys_clock_pll+0x78>)
1000071c:	2200      	movs	r2, #0
1000071e:	9300      	str	r3, [sp, #0]
10000720:	2102      	movs	r1, #2
10000722:	2004      	movs	r0, #4
10000724:	f001 f8b6 	bl	10001894 <clock_configure>
10000728:	0023      	movs	r3, r4
1000072a:	2200      	movs	r2, #0
1000072c:	2101      	movs	r1, #1
1000072e:	9400      	str	r4, [sp, #0]
10000730:	2005      	movs	r0, #5
10000732:	f001 f8af 	bl	10001894 <clock_configure>
10000736:	003b      	movs	r3, r7
10000738:	2202      	movs	r2, #2
1000073a:	2100      	movs	r1, #0
1000073c:	9700      	str	r7, [sp, #0]
1000073e:	2006      	movs	r0, #6
10000740:	f001 f8a8 	bl	10001894 <clock_configure>
10000744:	e7d1      	b.n	100006ea <set_sys_clock_pll+0x12>
10000746:	46c0      	nop			; (mov r8, r8)
10000748:	02dc6c00 	.word	0x02dc6c00
1000074c:	40028000 	.word	0x40028000
10000750:	00b71b00 	.word	0x00b71b00

10000754 <check_sys_clock_khz>:
10000754:	b5f0      	push	{r4, r5, r6, r7, lr}
10000756:	46de      	mov	lr, fp
10000758:	4657      	mov	r7, sl
1000075a:	464e      	mov	r6, r9
1000075c:	4645      	mov	r5, r8
1000075e:	b5e0      	push	{r5, r6, r7, lr}
10000760:	0007      	movs	r7, r0
10000762:	b083      	sub	sp, #12
10000764:	2004      	movs	r0, #4
10000766:	469b      	mov	fp, r3
10000768:	9100      	str	r1, [sp, #0]
1000076a:	9201      	str	r2, [sp, #4]
1000076c:	f001 fa7a 	bl	10001c64 <clock_get_hz>
10000770:	21fa      	movs	r1, #250	; 0xfa
10000772:	0089      	lsls	r1, r1, #2
10000774:	f001 fce4 	bl	10002140 <__wrap___aeabi_uidiv>
10000778:	2332      	movs	r3, #50	; 0x32
1000077a:	4682      	mov	sl, r0
1000077c:	33ff      	adds	r3, #255	; 0xff
1000077e:	4699      	mov	r9, r3
10000780:	0086      	lsls	r6, r0, #2
10000782:	4456      	add	r6, sl
10000784:	01b6      	lsls	r6, r6, #6
10000786:	4b4c      	ldr	r3, [pc, #304]	; (100008b8 <check_sys_clock_khz+0x164>)
10000788:	4a4c      	ldr	r2, [pc, #304]	; (100008bc <check_sys_clock_khz+0x168>)
1000078a:	18f3      	adds	r3, r6, r3
1000078c:	2407      	movs	r4, #7
1000078e:	4293      	cmp	r3, r2
10000790:	d90b      	bls.n	100007aa <check_sys_clock_khz+0x56>
10000792:	2301      	movs	r3, #1
10000794:	425b      	negs	r3, r3
10000796:	469c      	mov	ip, r3
10000798:	4653      	mov	r3, sl
1000079a:	44e1      	add	r9, ip
1000079c:	1af6      	subs	r6, r6, r3
1000079e:	464b      	mov	r3, r9
100007a0:	2b00      	cmp	r3, #0
100007a2:	d1f0      	bne.n	10000786 <check_sys_clock_khz+0x32>
100007a4:	2000      	movs	r0, #0
100007a6:	e05a      	b.n	1000085e <check_sys_clock_khz+0x10a>
100007a8:	2401      	movs	r4, #1
100007aa:	0021      	movs	r1, r4
100007ac:	0030      	movs	r0, r6
100007ae:	4361      	muls	r1, r4
100007b0:	f001 fcc6 	bl	10002140 <__wrap___aeabi_uidiv>
100007b4:	4287      	cmp	r7, r0
100007b6:	d059      	beq.n	1000086c <check_sys_clock_khz+0x118>
100007b8:	1e63      	subs	r3, r4, #1
100007ba:	4698      	mov	r8, r3
100007bc:	2c01      	cmp	r4, #1
100007be:	d0e8      	beq.n	10000792 <check_sys_clock_khz+0x3e>
100007c0:	001d      	movs	r5, r3
100007c2:	4365      	muls	r5, r4
100007c4:	0030      	movs	r0, r6
100007c6:	0029      	movs	r1, r5
100007c8:	f001 fcba 	bl	10002140 <__wrap___aeabi_uidiv>
100007cc:	4287      	cmp	r7, r0
100007ce:	d051      	beq.n	10000874 <check_sys_clock_khz+0x120>
100007d0:	1ea3      	subs	r3, r4, #2
100007d2:	4698      	mov	r8, r3
100007d4:	2c02      	cmp	r4, #2
100007d6:	d0e7      	beq.n	100007a8 <check_sys_clock_khz+0x54>
100007d8:	1b2d      	subs	r5, r5, r4
100007da:	0029      	movs	r1, r5
100007dc:	0030      	movs	r0, r6
100007de:	f001 fcaf 	bl	10002140 <__wrap___aeabi_uidiv>
100007e2:	4287      	cmp	r7, r0
100007e4:	d049      	beq.n	1000087a <check_sys_clock_khz+0x126>
100007e6:	1ee3      	subs	r3, r4, #3
100007e8:	4698      	mov	r8, r3
100007ea:	2c03      	cmp	r4, #3
100007ec:	d04b      	beq.n	10000886 <check_sys_clock_khz+0x132>
100007ee:	1b2d      	subs	r5, r5, r4
100007f0:	0029      	movs	r1, r5
100007f2:	0030      	movs	r0, r6
100007f4:	f001 fca4 	bl	10002140 <__wrap___aeabi_uidiv>
100007f8:	4287      	cmp	r7, r0
100007fa:	d046      	beq.n	1000088a <check_sys_clock_khz+0x136>
100007fc:	1f23      	subs	r3, r4, #4
100007fe:	4698      	mov	r8, r3
10000800:	2c04      	cmp	r4, #4
10000802:	d048      	beq.n	10000896 <check_sys_clock_khz+0x142>
10000804:	1b2d      	subs	r5, r5, r4
10000806:	0029      	movs	r1, r5
10000808:	0030      	movs	r0, r6
1000080a:	f001 fc99 	bl	10002140 <__wrap___aeabi_uidiv>
1000080e:	4287      	cmp	r7, r0
10000810:	d043      	beq.n	1000089a <check_sys_clock_khz+0x146>
10000812:	1f63      	subs	r3, r4, #5
10000814:	4698      	mov	r8, r3
10000816:	2c05      	cmp	r4, #5
10000818:	d045      	beq.n	100008a6 <check_sys_clock_khz+0x152>
1000081a:	1b2d      	subs	r5, r5, r4
1000081c:	0029      	movs	r1, r5
1000081e:	0030      	movs	r0, r6
10000820:	f001 fc8e 	bl	10002140 <__wrap___aeabi_uidiv>
10000824:	4287      	cmp	r7, r0
10000826:	d040      	beq.n	100008aa <check_sys_clock_khz+0x156>
10000828:	2c06      	cmp	r4, #6
1000082a:	d042      	beq.n	100008b2 <check_sys_clock_khz+0x15e>
1000082c:	0030      	movs	r0, r6
1000082e:	1fe9      	subs	r1, r5, #7
10000830:	f001 fc86 	bl	10002140 <__wrap___aeabi_uidiv>
10000834:	2406      	movs	r4, #6
10000836:	4287      	cmp	r7, r0
10000838:	d1b7      	bne.n	100007aa <check_sys_clock_khz+0x56>
1000083a:	2900      	cmp	r1, #0
1000083c:	d1b5      	bne.n	100007aa <check_sys_clock_khz+0x56>
1000083e:	2301      	movs	r3, #1
10000840:	2407      	movs	r4, #7
10000842:	4698      	mov	r8, r3
10000844:	0173      	lsls	r3, r6, #5
10000846:	1b9b      	subs	r3, r3, r6
10000848:	009b      	lsls	r3, r3, #2
1000084a:	199e      	adds	r6, r3, r6
1000084c:	9b00      	ldr	r3, [sp, #0]
1000084e:	00f6      	lsls	r6, r6, #3
10000850:	601e      	str	r6, [r3, #0]
10000852:	9b01      	ldr	r3, [sp, #4]
10000854:	4642      	mov	r2, r8
10000856:	601c      	str	r4, [r3, #0]
10000858:	465b      	mov	r3, fp
1000085a:	2001      	movs	r0, #1
1000085c:	601a      	str	r2, [r3, #0]
1000085e:	b003      	add	sp, #12
10000860:	bc3c      	pop	{r2, r3, r4, r5}
10000862:	4690      	mov	r8, r2
10000864:	4699      	mov	r9, r3
10000866:	46a2      	mov	sl, r4
10000868:	46ab      	mov	fp, r5
1000086a:	bdf0      	pop	{r4, r5, r6, r7, pc}
1000086c:	2900      	cmp	r1, #0
1000086e:	d1a3      	bne.n	100007b8 <check_sys_clock_khz+0x64>
10000870:	46a0      	mov	r8, r4
10000872:	e7e7      	b.n	10000844 <check_sys_clock_khz+0xf0>
10000874:	2900      	cmp	r1, #0
10000876:	d1ab      	bne.n	100007d0 <check_sys_clock_khz+0x7c>
10000878:	e7e4      	b.n	10000844 <check_sys_clock_khz+0xf0>
1000087a:	2900      	cmp	r1, #0
1000087c:	d0e2      	beq.n	10000844 <check_sys_clock_khz+0xf0>
1000087e:	1ee3      	subs	r3, r4, #3
10000880:	4698      	mov	r8, r3
10000882:	2c03      	cmp	r4, #3
10000884:	d1b3      	bne.n	100007ee <check_sys_clock_khz+0x9a>
10000886:	2402      	movs	r4, #2
10000888:	e78f      	b.n	100007aa <check_sys_clock_khz+0x56>
1000088a:	2900      	cmp	r1, #0
1000088c:	d0da      	beq.n	10000844 <check_sys_clock_khz+0xf0>
1000088e:	1f23      	subs	r3, r4, #4
10000890:	4698      	mov	r8, r3
10000892:	2c04      	cmp	r4, #4
10000894:	d1b6      	bne.n	10000804 <check_sys_clock_khz+0xb0>
10000896:	2403      	movs	r4, #3
10000898:	e787      	b.n	100007aa <check_sys_clock_khz+0x56>
1000089a:	2900      	cmp	r1, #0
1000089c:	d0d2      	beq.n	10000844 <check_sys_clock_khz+0xf0>
1000089e:	1f63      	subs	r3, r4, #5
100008a0:	4698      	mov	r8, r3
100008a2:	2c05      	cmp	r4, #5
100008a4:	d1b9      	bne.n	1000081a <check_sys_clock_khz+0xc6>
100008a6:	2404      	movs	r4, #4
100008a8:	e77f      	b.n	100007aa <check_sys_clock_khz+0x56>
100008aa:	2900      	cmp	r1, #0
100008ac:	d0ca      	beq.n	10000844 <check_sys_clock_khz+0xf0>
100008ae:	2c06      	cmp	r4, #6
100008b0:	d1bc      	bne.n	1000082c <check_sys_clock_khz+0xd8>
100008b2:	2405      	movs	r4, #5
100008b4:	e779      	b.n	100007aa <check_sys_clock_khz+0x56>
100008b6:	46c0      	nop			; (mov r8, r8)
100008b8:	fff9e580 	.word	0xfff9e580
100008bc:	00124f80 	.word	0x00124f80

100008c0 <gpio_set_function>:
100008c0:	4a09      	ldr	r2, [pc, #36]	; (100008e8 <gpio_set_function+0x28>)
100008c2:	0083      	lsls	r3, r0, #2
100008c4:	4694      	mov	ip, r2
100008c6:	2240      	movs	r2, #64	; 0x40
100008c8:	4463      	add	r3, ip
100008ca:	b510      	push	{r4, lr}
100008cc:	681c      	ldr	r4, [r3, #0]
100008ce:	00c0      	lsls	r0, r0, #3
100008d0:	4062      	eors	r2, r4
100008d2:	24c0      	movs	r4, #192	; 0xc0
100008d4:	4014      	ands	r4, r2
100008d6:	2280      	movs	r2, #128	; 0x80
100008d8:	0152      	lsls	r2, r2, #5
100008da:	4313      	orrs	r3, r2
100008dc:	601c      	str	r4, [r3, #0]
100008de:	4b03      	ldr	r3, [pc, #12]	; (100008ec <gpio_set_function+0x2c>)
100008e0:	469c      	mov	ip, r3
100008e2:	4460      	add	r0, ip
100008e4:	6041      	str	r1, [r0, #4]
100008e6:	bd10      	pop	{r4, pc}
100008e8:	4001c004 	.word	0x4001c004
100008ec:	40014000 	.word	0x40014000

100008f0 <gpio_set_pulls>:
100008f0:	4b0a      	ldr	r3, [pc, #40]	; (1000091c <gpio_set_pulls+0x2c>)
100008f2:	0080      	lsls	r0, r0, #2
100008f4:	469c      	mov	ip, r3
100008f6:	2304      	movs	r3, #4
100008f8:	4460      	add	r0, ip
100008fa:	2900      	cmp	r1, #0
100008fc:	d001      	beq.n	10000902 <gpio_set_pulls+0x12>
100008fe:	2108      	movs	r1, #8
10000900:	230c      	movs	r3, #12
10000902:	2a00      	cmp	r2, #0
10000904:	d100      	bne.n	10000908 <gpio_set_pulls+0x18>
10000906:	000b      	movs	r3, r1
10000908:	6802      	ldr	r2, [r0, #0]
1000090a:	4053      	eors	r3, r2
1000090c:	220c      	movs	r2, #12
1000090e:	401a      	ands	r2, r3
10000910:	2380      	movs	r3, #128	; 0x80
10000912:	015b      	lsls	r3, r3, #5
10000914:	4318      	orrs	r0, r3
10000916:	6002      	str	r2, [r0, #0]
10000918:	4770      	bx	lr
1000091a:	46c0      	nop			; (mov r8, r8)
1000091c:	4001c004 	.word	0x4001c004

10000920 <gpio_set_input_enabled>:
10000920:	4b08      	ldr	r3, [pc, #32]	; (10000944 <gpio_set_input_enabled+0x24>)
10000922:	0080      	lsls	r0, r0, #2
10000924:	469c      	mov	ip, r3
10000926:	4460      	add	r0, ip
10000928:	2900      	cmp	r1, #0
1000092a:	d005      	beq.n	10000938 <gpio_set_input_enabled+0x18>
1000092c:	2380      	movs	r3, #128	; 0x80
1000092e:	019b      	lsls	r3, r3, #6
10000930:	4318      	orrs	r0, r3
10000932:	2340      	movs	r3, #64	; 0x40
10000934:	6003      	str	r3, [r0, #0]
10000936:	4770      	bx	lr
10000938:	23c0      	movs	r3, #192	; 0xc0
1000093a:	019b      	lsls	r3, r3, #6
1000093c:	4318      	orrs	r0, r3
1000093e:	2340      	movs	r3, #64	; 0x40
10000940:	6003      	str	r3, [r0, #0]
10000942:	e7f8      	b.n	10000936 <gpio_set_input_enabled+0x16>
10000944:	4001c004 	.word	0x4001c004

10000948 <gpio_init>:
10000948:	2301      	movs	r3, #1
1000094a:	22d0      	movs	r2, #208	; 0xd0
1000094c:	4083      	lsls	r3, r0
1000094e:	0612      	lsls	r2, r2, #24
10000950:	6293      	str	r3, [r2, #40]	; 0x28
10000952:	6193      	str	r3, [r2, #24]
10000954:	4a09      	ldr	r2, [pc, #36]	; (1000097c <gpio_init+0x34>)
10000956:	0083      	lsls	r3, r0, #2
10000958:	4694      	mov	ip, r2
1000095a:	2240      	movs	r2, #64	; 0x40
1000095c:	4463      	add	r3, ip
1000095e:	6819      	ldr	r1, [r3, #0]
10000960:	00c0      	lsls	r0, r0, #3
10000962:	404a      	eors	r2, r1
10000964:	21c0      	movs	r1, #192	; 0xc0
10000966:	4011      	ands	r1, r2
10000968:	2280      	movs	r2, #128	; 0x80
1000096a:	0152      	lsls	r2, r2, #5
1000096c:	4313      	orrs	r3, r2
1000096e:	6019      	str	r1, [r3, #0]
10000970:	4b03      	ldr	r3, [pc, #12]	; (10000980 <gpio_init+0x38>)
10000972:	469c      	mov	ip, r3
10000974:	2305      	movs	r3, #5
10000976:	4460      	add	r0, ip
10000978:	6043      	str	r3, [r0, #4]
1000097a:	4770      	bx	lr
1000097c:	4001c004 	.word	0x4001c004
10000980:	40014000 	.word	0x40014000

10000984 <hw_claim_or_assert>:
10000984:	b5f8      	push	{r3, r4, r5, r6, r7, lr}
10000986:	46ce      	mov	lr, r9
10000988:	4647      	mov	r7, r8
1000098a:	4691      	mov	r9, r2
1000098c:	b580      	push	{r7, lr}
1000098e:	f3ef 8710 	mrs	r7, PRIMASK
10000992:	b672      	cpsid	i
10000994:	4e12      	ldr	r6, [pc, #72]	; (100009e0 <hw_claim_or_assert+0x5c>)
10000996:	6833      	ldr	r3, [r6, #0]
10000998:	2b00      	cmp	r3, #0
1000099a:	d0fc      	beq.n	10000996 <hw_claim_or_assert+0x12>
1000099c:	f3bf 8f5f 	dmb	sy
100009a0:	08cb      	lsrs	r3, r1, #3
100009a2:	5cc5      	ldrb	r5, [r0, r3]
100009a4:	2407      	movs	r4, #7
100009a6:	18c2      	adds	r2, r0, r3
100009a8:	0028      	movs	r0, r5
100009aa:	2301      	movs	r3, #1
100009ac:	400c      	ands	r4, r1
100009ae:	4694      	mov	ip, r2
100009b0:	40e0      	lsrs	r0, r4
100009b2:	001a      	movs	r2, r3
100009b4:	4002      	ands	r2, r0
100009b6:	4690      	mov	r8, r2
100009b8:	4203      	tst	r3, r0
100009ba:	d10d      	bne.n	100009d8 <hw_claim_or_assert+0x54>
100009bc:	40a3      	lsls	r3, r4
100009be:	4662      	mov	r2, ip
100009c0:	432b      	orrs	r3, r5
100009c2:	7013      	strb	r3, [r2, #0]
100009c4:	f3bf 8f5f 	dmb	sy
100009c8:	4643      	mov	r3, r8
100009ca:	6033      	str	r3, [r6, #0]
100009cc:	f387 8810 	msr	PRIMASK, r7
100009d0:	bc0c      	pop	{r2, r3}
100009d2:	4690      	mov	r8, r2
100009d4:	4699      	mov	r9, r3
100009d6:	bdf8      	pop	{r3, r4, r5, r6, r7, pc}
100009d8:	4648      	mov	r0, r9
100009da:	f000 ff3d 	bl	10001858 <panic>
100009de:	46c0      	nop			; (mov r8, r8)
100009e0:	d000012c 	.word	0xd000012c

100009e4 <spin_locks_reset>:
100009e4:	2100      	movs	r1, #0
100009e6:	4b04      	ldr	r3, [pc, #16]	; (100009f8 <spin_locks_reset+0x14>)
100009e8:	4a04      	ldr	r2, [pc, #16]	; (100009fc <spin_locks_reset+0x18>)
100009ea:	f3bf 8f5f 	dmb	sy
100009ee:	c302      	stmia	r3!, {r1}
100009f0:	4293      	cmp	r3, r2
100009f2:	d1fa      	bne.n	100009ea <spin_locks_reset+0x6>
100009f4:	4770      	bx	lr
100009f6:	46c0      	nop			; (mov r8, r8)
100009f8:	d0000100 	.word	0xd0000100
100009fc:	d0000180 	.word	0xd0000180

10000a00 <next_striped_spin_lock_num>:
10000a00:	4a04      	ldr	r2, [pc, #16]	; (10000a14 <next_striped_spin_lock_num+0x14>)
10000a02:	7810      	ldrb	r0, [r2, #0]
10000a04:	1c43      	adds	r3, r0, #1
10000a06:	b2db      	uxtb	r3, r3
10000a08:	2b17      	cmp	r3, #23
10000a0a:	d900      	bls.n	10000a0e <next_striped_spin_lock_num+0xe>
10000a0c:	2310      	movs	r3, #16
10000a0e:	7013      	strb	r3, [r2, #0]
10000a10:	4770      	bx	lr
10000a12:	46c0      	nop			; (mov r8, r8)
10000a14:	20000180 	.word	0x20000180

10000a18 <running_on_fpga>:
10000a18:	4b02      	ldr	r3, [pc, #8]	; (10000a24 <running_on_fpga+0xc>)
10000a1a:	6818      	ldr	r0, [r3, #0]
10000a1c:	0780      	lsls	r0, r0, #30
10000a1e:	0fc0      	lsrs	r0, r0, #31
10000a20:	4770      	bx	lr
10000a22:	46c0      	nop			; (mov r8, r8)
10000a24:	4006c000 	.word	0x4006c000

10000a28 <uart_init>:
10000a28:	b5f8      	push	{r3, r4, r5, r6, r7, lr}
10000a2a:	0004      	movs	r4, r0
10000a2c:	2006      	movs	r0, #6
10000a2e:	000d      	movs	r5, r1
10000a30:	f001 f918 	bl	10001c64 <clock_get_hz>
10000a34:	2800      	cmp	r0, #0
10000a36:	d045      	beq.n	10000ac4 <uart_init+0x9c>
10000a38:	4b2b      	ldr	r3, [pc, #172]	; (10000ae8 <uart_init+0xc0>)
10000a3a:	492c      	ldr	r1, [pc, #176]	; (10000aec <uart_init+0xc4>)
10000a3c:	18e3      	adds	r3, r4, r3
10000a3e:	425a      	negs	r2, r3
10000a40:	4153      	adcs	r3, r2
10000a42:	2280      	movs	r2, #128	; 0x80
10000a44:	03d2      	lsls	r2, r2, #15
10000a46:	4694      	mov	ip, r2
10000a48:	425b      	negs	r3, r3
10000a4a:	4013      	ands	r3, r2
10000a4c:	4a28      	ldr	r2, [pc, #160]	; (10000af0 <uart_init+0xc8>)
10000a4e:	4463      	add	r3, ip
10000a50:	6013      	str	r3, [r2, #0]
10000a52:	4a28      	ldr	r2, [pc, #160]	; (10000af4 <uart_init+0xcc>)
10000a54:	6013      	str	r3, [r2, #0]
10000a56:	0018      	movs	r0, r3
10000a58:	688a      	ldr	r2, [r1, #8]
10000a5a:	4390      	bics	r0, r2
10000a5c:	d1fb      	bne.n	10000a56 <uart_init+0x2e>
10000a5e:	4b22      	ldr	r3, [pc, #136]	; (10000ae8 <uart_init+0xc0>)
10000a60:	2180      	movs	r1, #128	; 0x80
10000a62:	18e3      	adds	r3, r4, r3
10000a64:	425a      	negs	r2, r3
10000a66:	4153      	adcs	r3, r2
10000a68:	4a23      	ldr	r2, [pc, #140]	; (10000af8 <uart_init+0xd0>)
10000a6a:	005b      	lsls	r3, r3, #1
10000a6c:	0049      	lsls	r1, r1, #1
10000a6e:	2006      	movs	r0, #6
10000a70:	5299      	strh	r1, [r3, r2]
10000a72:	f001 f8f7 	bl	10001c64 <clock_get_hz>
10000a76:	0029      	movs	r1, r5
10000a78:	00c0      	lsls	r0, r0, #3
10000a7a:	f001 fb61 	bl	10002140 <__wrap___aeabi_uidiv>
10000a7e:	09c3      	lsrs	r3, r0, #7
10000a80:	d121      	bne.n	10000ac6 <uart_init+0x9e>
10000a82:	2740      	movs	r7, #64	; 0x40
10000a84:	2201      	movs	r2, #1
10000a86:	0026      	movs	r6, r4
10000a88:	2580      	movs	r5, #128	; 0x80
10000a8a:	6262      	str	r2, [r4, #36]	; 0x24
10000a8c:	62a3      	str	r3, [r4, #40]	; 0x28
10000a8e:	2300      	movs	r3, #0
10000a90:	362c      	adds	r6, #44	; 0x2c
10000a92:	01ad      	lsls	r5, r5, #6
10000a94:	4335      	orrs	r5, r6
10000a96:	602b      	str	r3, [r5, #0]
10000a98:	2006      	movs	r0, #6
10000a9a:	f001 f8e3 	bl	10001c64 <clock_get_hz>
10000a9e:	0039      	movs	r1, r7
10000aa0:	0080      	lsls	r0, r0, #2
10000aa2:	f001 fb4d 	bl	10002140 <__wrap___aeabi_uidiv>
10000aa6:	2360      	movs	r3, #96	; 0x60
10000aa8:	6ae2      	ldr	r2, [r4, #44]	; 0x2c
10000aaa:	4053      	eors	r3, r2
10000aac:	226e      	movs	r2, #110	; 0x6e
10000aae:	401a      	ands	r2, r3
10000ab0:	2380      	movs	r3, #128	; 0x80
10000ab2:	015b      	lsls	r3, r3, #5
10000ab4:	4333      	orrs	r3, r6
10000ab6:	601a      	str	r2, [r3, #0]
10000ab8:	4b10      	ldr	r3, [pc, #64]	; (10000afc <uart_init+0xd4>)
10000aba:	6323      	str	r3, [r4, #48]	; 0x30
10000abc:	2310      	movs	r3, #16
10000abe:	602b      	str	r3, [r5, #0]
10000ac0:	3b0d      	subs	r3, #13
10000ac2:	64a3      	str	r3, [r4, #72]	; 0x48
10000ac4:	bdf8      	pop	{r3, r4, r5, r6, r7, pc}
10000ac6:	4a0e      	ldr	r2, [pc, #56]	; (10000b00 <uart_init+0xd8>)
10000ac8:	4293      	cmp	r3, r2
10000aca:	d903      	bls.n	10000ad4 <uart_init+0xac>
10000acc:	2300      	movs	r3, #0
10000ace:	4f0d      	ldr	r7, [pc, #52]	; (10000b04 <uart_init+0xdc>)
10000ad0:	4a0d      	ldr	r2, [pc, #52]	; (10000b08 <uart_init+0xe0>)
10000ad2:	e7d8      	b.n	10000a86 <uart_init+0x5e>
10000ad4:	227f      	movs	r2, #127	; 0x7f
10000ad6:	4010      	ands	r0, r2
10000ad8:	3001      	adds	r0, #1
10000ada:	0840      	lsrs	r0, r0, #1
10000adc:	019f      	lsls	r7, r3, #6
10000ade:	001a      	movs	r2, r3
10000ae0:	183f      	adds	r7, r7, r0
10000ae2:	0003      	movs	r3, r0
10000ae4:	e7cf      	b.n	10000a86 <uart_init+0x5e>
10000ae6:	46c0      	nop			; (mov r8, r8)
10000ae8:	bffc8000 	.word	0xbffc8000
10000aec:	4000c000 	.word	0x4000c000
10000af0:	4000e000 	.word	0x4000e000
10000af4:	4000f000 	.word	0x4000f000
10000af8:	20000b34 	.word	0x20000b34
10000afc:	00000301 	.word	0x00000301
10000b00:	0000fffe 	.word	0x0000fffe
10000b04:	003fffc0 	.word	0x003fffc0
10000b08:	0000ffff 	.word	0x0000ffff

10000b0c <timer_pool_entry_comparator>:
10000b0c:	6883      	ldr	r3, [r0, #8]
10000b0e:	480b      	ldr	r0, [pc, #44]	; (10000b3c <timer_pool_entry_comparator+0x30>)
10000b10:	b510      	push	{r4, lr}
10000b12:	4684      	mov	ip, r0
10000b14:	4461      	add	r1, ip
10000b16:	4462      	add	r2, ip
10000b18:	0109      	lsls	r1, r1, #4
10000b1a:	0112      	lsls	r2, r2, #4
10000b1c:	189a      	adds	r2, r3, r2
10000b1e:	1859      	adds	r1, r3, r1
10000b20:	6854      	ldr	r4, [r2, #4]
10000b22:	684b      	ldr	r3, [r1, #4]
10000b24:	2001      	movs	r0, #1
10000b26:	429c      	cmp	r4, r3
10000b28:	d801      	bhi.n	10000b2e <timer_pool_entry_comparator+0x22>
10000b2a:	d002      	beq.n	10000b32 <timer_pool_entry_comparator+0x26>
10000b2c:	2000      	movs	r0, #0
10000b2e:	b2c0      	uxtb	r0, r0
10000b30:	bd10      	pop	{r4, pc}
10000b32:	6812      	ldr	r2, [r2, #0]
10000b34:	680b      	ldr	r3, [r1, #0]
10000b36:	429a      	cmp	r2, r3
10000b38:	d8f9      	bhi.n	10000b2e <timer_pool_entry_comparator+0x22>
10000b3a:	e7f7      	b.n	10000b2c <timer_pool_entry_comparator+0x20>
10000b3c:	0fffffff 	.word	0x0fffffff

10000b40 <sev_callback>:
10000b40:	bf40      	sev
10000b42:	2000      	movs	r0, #0
10000b44:	2100      	movs	r1, #0
10000b46:	4770      	bx	lr

10000b48 <add_alarm_under_lock>:
10000b48:	b5f8      	push	{r3, r4, r5, r6, r7, lr}
10000b4a:	46de      	mov	lr, fp
10000b4c:	4657      	mov	r7, sl
10000b4e:	464e      	mov	r6, r9
10000b50:	4645      	mov	r5, r8
10000b52:	b5e0      	push	{r5, r6, r7, lr}
10000b54:	001f      	movs	r7, r3
10000b56:	ab0d      	add	r3, sp, #52	; 0x34
10000b58:	781b      	ldrb	r3, [r3, #0]
10000b5a:	0005      	movs	r5, r0
10000b5c:	469b      	mov	fp, r3
10000b5e:	9b0c      	ldr	r3, [sp, #48]	; 0x30
10000b60:	0016      	movs	r6, r2
10000b62:	2b00      	cmp	r3, #0
10000b64:	d045      	beq.n	10000bf2 <add_alarm_under_lock+0xaa>
10000b66:	4a41      	ldr	r2, [pc, #260]	; (10000c6c <add_alarm_under_lock+0x124>)
10000b68:	9b0c      	ldr	r3, [sp, #48]	; 0x30
10000b6a:	4694      	mov	ip, r2
10000b6c:	b2db      	uxtb	r3, r3
10000b6e:	68aa      	ldr	r2, [r5, #8]
10000b70:	469a      	mov	sl, r3
10000b72:	9b0c      	ldr	r3, [sp, #48]	; 0x30
10000b74:	682c      	ldr	r4, [r5, #0]
10000b76:	4463      	add	r3, ip
10000b78:	4694      	mov	ip, r2
10000b7a:	011b      	lsls	r3, r3, #4
10000b7c:	9a0a      	ldr	r2, [sp, #40]	; 0x28
10000b7e:	4463      	add	r3, ip
10000b80:	609a      	str	r2, [r3, #8]
10000b82:	9a0b      	ldr	r2, [sp, #44]	; 0x2c
10000b84:	601e      	str	r6, [r3, #0]
10000b86:	60da      	str	r2, [r3, #12]
10000b88:	9a0c      	ldr	r2, [sp, #48]	; 0x30
10000b8a:	605f      	str	r7, [r3, #4]
10000b8c:	4694      	mov	ip, r2
10000b8e:	9b0c      	ldr	r3, [sp, #48]	; 0x30
10000b90:	2200      	movs	r2, #0
10000b92:	005b      	lsls	r3, r3, #1
10000b94:	4463      	add	r3, ip
10000b96:	3b03      	subs	r3, #3
10000b98:	4698      	mov	r8, r3
10000b9a:	6823      	ldr	r3, [r4, #0]
10000b9c:	4443      	add	r3, r8
10000b9e:	709a      	strb	r2, [r3, #2]
10000ba0:	705a      	strb	r2, [r3, #1]
10000ba2:	701a      	strb	r2, [r3, #0]
10000ba4:	7b63      	ldrb	r3, [r4, #13]
10000ba6:	4699      	mov	r9, r3
10000ba8:	2b00      	cmp	r3, #0
10000baa:	d043      	beq.n	10000c34 <add_alarm_under_lock+0xec>
10000bac:	4652      	mov	r2, sl
10000bae:	0019      	movs	r1, r3
10000bb0:	68a0      	ldr	r0, [r4, #8]
10000bb2:	6863      	ldr	r3, [r4, #4]
10000bb4:	4798      	blx	r3
10000bb6:	6822      	ldr	r2, [r4, #0]
10000bb8:	2800      	cmp	r0, #0
10000bba:	d02b      	beq.n	10000c14 <add_alarm_under_lock+0xcc>
10000bbc:	464b      	mov	r3, r9
10000bbe:	005b      	lsls	r3, r3, #1
10000bc0:	444b      	add	r3, r9
10000bc2:	3b03      	subs	r3, #3
10000bc4:	18d1      	adds	r1, r2, r3
10000bc6:	468c      	mov	ip, r1
10000bc8:	4641      	mov	r1, r8
10000bca:	4648      	mov	r0, r9
10000bcc:	1851      	adds	r1, r2, r1
10000bce:	7088      	strb	r0, [r1, #2]
10000bd0:	5cd3      	ldrb	r3, [r2, r3]
10000bd2:	2b00      	cmp	r3, #0
10000bd4:	d146      	bne.n	10000c64 <add_alarm_under_lock+0x11c>
10000bd6:	4653      	mov	r3, sl
10000bd8:	4662      	mov	r2, ip
10000bda:	7013      	strb	r3, [r2, #0]
10000bdc:	464b      	mov	r3, r9
10000bde:	980c      	ldr	r0, [sp, #48]	; 0x30
10000be0:	7363      	strb	r3, [r4, #13]
10000be2:	4581      	cmp	r9, r0
10000be4:	d028      	beq.n	10000c38 <add_alarm_under_lock+0xf0>
10000be6:	bc3c      	pop	{r2, r3, r4, r5}
10000be8:	4690      	mov	r8, r2
10000bea:	4699      	mov	r9, r3
10000bec:	46a2      	mov	sl, r4
10000bee:	46ab      	mov	fp, r5
10000bf0:	bdf8      	pop	{r3, r4, r5, r6, r7, pc}
10000bf2:	6802      	ldr	r2, [r0, #0]
10000bf4:	7b94      	ldrb	r4, [r2, #14]
10000bf6:	2c00      	cmp	r4, #0
10000bf8:	d032      	beq.n	10000c60 <add_alarm_under_lock+0x118>
10000bfa:	6811      	ldr	r1, [r2, #0]
10000bfc:	0063      	lsls	r3, r4, #1
10000bfe:	468c      	mov	ip, r1
10000c00:	191b      	adds	r3, r3, r4
10000c02:	4463      	add	r3, ip
10000c04:	3b03      	subs	r3, #3
10000c06:	785b      	ldrb	r3, [r3, #1]
10000c08:	7393      	strb	r3, [r2, #14]
10000c0a:	2b00      	cmp	r3, #0
10000c0c:	d100      	bne.n	10000c10 <add_alarm_under_lock+0xc8>
10000c0e:	73d3      	strb	r3, [r2, #15]
10000c10:	940c      	str	r4, [sp, #48]	; 0x30
10000c12:	e7a8      	b.n	10000b66 <add_alarm_under_lock+0x1e>
10000c14:	4643      	mov	r3, r8
10000c16:	18d1      	adds	r1, r2, r3
10000c18:	464b      	mov	r3, r9
10000c1a:	4650      	mov	r0, sl
10000c1c:	005b      	lsls	r3, r3, #1
10000c1e:	444b      	add	r3, r9
10000c20:	3b03      	subs	r3, #3
10000c22:	18d3      	adds	r3, r2, r3
10000c24:	7098      	strb	r0, [r3, #2]
10000c26:	4640      	mov	r0, r8
10000c28:	5c12      	ldrb	r2, [r2, r0]
10000c2a:	2a00      	cmp	r2, #0
10000c2c:	d000      	beq.n	10000c30 <add_alarm_under_lock+0xe8>
10000c2e:	705a      	strb	r2, [r3, #1]
10000c30:	464b      	mov	r3, r9
10000c32:	700b      	strb	r3, [r1, #0]
10000c34:	4653      	mov	r3, sl
10000c36:	7363      	strb	r3, [r4, #13]
10000c38:	0032      	movs	r2, r6
10000c3a:	003b      	movs	r3, r7
10000c3c:	7d28      	ldrb	r0, [r5, #20]
10000c3e:	f000 fadb 	bl	100011f8 <hardware_alarm_set_target>
10000c42:	1e06      	subs	r6, r0, #0
10000c44:	d006      	beq.n	10000c54 <add_alarm_under_lock+0x10c>
10000c46:	465b      	mov	r3, fp
10000c48:	2b00      	cmp	r3, #0
10000c4a:	d103      	bne.n	10000c54 <add_alarm_under_lock+0x10c>
10000c4c:	4651      	mov	r1, sl
10000c4e:	6828      	ldr	r0, [r5, #0]
10000c50:	f000 fd32 	bl	100016b8 <ph_delete>
10000c54:	9b0e      	ldr	r3, [sp, #56]	; 0x38
10000c56:	2b00      	cmp	r3, #0
10000c58:	d006      	beq.n	10000c68 <add_alarm_under_lock+0x120>
10000c5a:	980c      	ldr	r0, [sp, #48]	; 0x30
10000c5c:	701e      	strb	r6, [r3, #0]
10000c5e:	e7c2      	b.n	10000be6 <add_alarm_under_lock+0x9e>
10000c60:	2000      	movs	r0, #0
10000c62:	e7c0      	b.n	10000be6 <add_alarm_under_lock+0x9e>
10000c64:	704b      	strb	r3, [r1, #1]
10000c66:	e7b6      	b.n	10000bd6 <add_alarm_under_lock+0x8e>
10000c68:	980c      	ldr	r0, [sp, #48]	; 0x30
10000c6a:	e7bc      	b.n	10000be6 <add_alarm_under_lock+0x9e>
10000c6c:	0fffffff 	.word	0x0fffffff

10000c70 <alarm_pool_alarm_callback>:
10000c70:	b5f0      	push	{r4, r5, r6, r7, lr}
10000c72:	46de      	mov	lr, fp
10000c74:	464e      	mov	r6, r9
10000c76:	4657      	mov	r7, sl
10000c78:	4645      	mov	r5, r8
10000c7a:	2300      	movs	r3, #0
10000c7c:	b5e0      	push	{r5, r6, r7, lr}
10000c7e:	b08d      	sub	sp, #52	; 0x34
10000c80:	930a      	str	r3, [sp, #40]	; 0x28
10000c82:	4b6b      	ldr	r3, [pc, #428]	; (10000e30 <alarm_pool_alarm_callback+0x1c0>)
10000c84:	0082      	lsls	r2, r0, #2
10000c86:	58d3      	ldr	r3, [r2, r3]
10000c88:	900b      	str	r0, [sp, #44]	; 0x2c
10000c8a:	4699      	mov	r9, r3
10000c8c:	2300      	movs	r3, #0
10000c8e:	469b      	mov	fp, r3
10000c90:	464b      	mov	r3, r9
10000c92:	9307      	str	r3, [sp, #28]
10000c94:	f000 fa50 	bl	10001138 <time_us_64>
10000c98:	9c07      	ldr	r4, [sp, #28]
10000c9a:	0006      	movs	r6, r0
10000c9c:	000f      	movs	r7, r1
10000c9e:	6862      	ldr	r2, [r4, #4]
10000ca0:	f3ef 8510 	mrs	r5, PRIMASK
10000ca4:	b672      	cpsid	i
10000ca6:	6813      	ldr	r3, [r2, #0]
10000ca8:	2b00      	cmp	r3, #0
10000caa:	d0fc      	beq.n	10000ca6 <alarm_pool_alarm_callback+0x36>
10000cac:	0022      	movs	r2, r4
10000cae:	9407      	str	r4, [sp, #28]
10000cb0:	f3bf 8f5f 	dmb	sy
10000cb4:	6824      	ldr	r4, [r4, #0]
10000cb6:	7b63      	ldrb	r3, [r4, #13]
10000cb8:	4699      	mov	r9, r3
10000cba:	2b00      	cmp	r3, #0
10000cbc:	d067      	beq.n	10000d8e <alarm_pool_alarm_callback+0x11e>
10000cbe:	6892      	ldr	r2, [r2, #8]
10000cc0:	4b5c      	ldr	r3, [pc, #368]	; (10000e34 <alarm_pool_alarm_callback+0x1c4>)
10000cc2:	4690      	mov	r8, r2
10000cc4:	444b      	add	r3, r9
10000cc6:	011b      	lsls	r3, r3, #4
10000cc8:	4498      	add	r8, r3
10000cca:	4643      	mov	r3, r8
10000ccc:	681a      	ldr	r2, [r3, #0]
10000cce:	685b      	ldr	r3, [r3, #4]
10000cd0:	0010      	movs	r0, r2
10000cd2:	0019      	movs	r1, r3
10000cd4:	1b80      	subs	r0, r0, r6
10000cd6:	41b9      	sbcs	r1, r7
10000cd8:	2900      	cmp	r1, #0
10000cda:	dd5f      	ble.n	10000d9c <alarm_pool_alarm_callback+0x12c>
10000cdc:	980b      	ldr	r0, [sp, #44]	; 0x2c
10000cde:	f000 fa8b 	bl	100011f8 <hardware_alarm_set_target>
10000ce2:	2300      	movs	r3, #0
10000ce4:	2600      	movs	r6, #0
10000ce6:	4698      	mov	r8, r3
10000ce8:	2700      	movs	r7, #0
10000cea:	469a      	mov	sl, r3
10000cec:	9c07      	ldr	r4, [sp, #28]
10000cee:	6863      	ldr	r3, [r4, #4]
10000cf0:	f3bf 8f5f 	dmb	sy
10000cf4:	465a      	mov	r2, fp
10000cf6:	601a      	str	r2, [r3, #0]
10000cf8:	f385 8810 	msr	PRIMASK, r5
10000cfc:	4653      	mov	r3, sl
10000cfe:	2b00      	cmp	r3, #0
10000d00:	d108      	bne.n	10000d14 <alarm_pool_alarm_callback+0xa4>
10000d02:	2800      	cmp	r0, #0
10000d04:	d1c6      	bne.n	10000c94 <alarm_pool_alarm_callback+0x24>
10000d06:	b00d      	add	sp, #52	; 0x34
10000d08:	bc3c      	pop	{r2, r3, r4, r5}
10000d0a:	4690      	mov	r8, r2
10000d0c:	4699      	mov	r9, r3
10000d0e:	46a2      	mov	sl, r4
10000d10:	46ab      	mov	fp, r5
10000d12:	bdf0      	pop	{r4, r5, r6, r7, pc}
10000d14:	9b0a      	ldr	r3, [sp, #40]	; 0x28
10000d16:	4641      	mov	r1, r8
10000d18:	0218      	lsls	r0, r3, #8
10000d1a:	464b      	mov	r3, r9
10000d1c:	4318      	orrs	r0, r3
10000d1e:	47d0      	blx	sl
10000d20:	9008      	str	r0, [sp, #32]
10000d22:	9109      	str	r1, [sp, #36]	; 0x24
10000d24:	6862      	ldr	r2, [r4, #4]
10000d26:	f3ef 8510 	mrs	r5, PRIMASK
10000d2a:	b672      	cpsid	i
10000d2c:	6813      	ldr	r3, [r2, #0]
10000d2e:	2b00      	cmp	r3, #0
10000d30:	d0fc      	beq.n	10000d2c <alarm_pool_alarm_callback+0xbc>
10000d32:	9407      	str	r4, [sp, #28]
10000d34:	f3bf 8f5f 	dmb	sy
10000d38:	9908      	ldr	r1, [sp, #32]
10000d3a:	9a09      	ldr	r2, [sp, #36]	; 0x24
10000d3c:	2a00      	cmp	r2, #0
10000d3e:	db48      	blt.n	10000dd2 <alarm_pool_alarm_callback+0x162>
10000d40:	4311      	orrs	r1, r2
10000d42:	d003      	beq.n	10000d4c <alarm_pool_alarm_callback+0xdc>
10000d44:	9b07      	ldr	r3, [sp, #28]
10000d46:	691b      	ldr	r3, [r3, #16]
10000d48:	2b00      	cmp	r3, #0
10000d4a:	d15d      	bne.n	10000e08 <alarm_pool_alarm_callback+0x198>
10000d4c:	9b07      	ldr	r3, [sp, #28]
10000d4e:	681b      	ldr	r3, [r3, #0]
10000d50:	7bda      	ldrb	r2, [r3, #15]
10000d52:	2a00      	cmp	r2, #0
10000d54:	d007      	beq.n	10000d66 <alarm_pool_alarm_callback+0xf6>
10000d56:	0051      	lsls	r1, r2, #1
10000d58:	188a      	adds	r2, r1, r2
10000d5a:	6819      	ldr	r1, [r3, #0]
10000d5c:	468c      	mov	ip, r1
10000d5e:	4649      	mov	r1, r9
10000d60:	4462      	add	r2, ip
10000d62:	3a03      	subs	r2, #3
10000d64:	7051      	strb	r1, [r2, #1]
10000d66:	464a      	mov	r2, r9
10000d68:	73da      	strb	r2, [r3, #15]
10000d6a:	464b      	mov	r3, r9
10000d6c:	9a07      	ldr	r2, [sp, #28]
10000d6e:	3b01      	subs	r3, #1
10000d70:	68d1      	ldr	r1, [r2, #12]
10000d72:	5cca      	ldrb	r2, [r1, r3]
10000d74:	3201      	adds	r2, #1
10000d76:	54ca      	strb	r2, [r1, r3]
10000d78:	465b      	mov	r3, fp
10000d7a:	9a07      	ldr	r2, [sp, #28]
10000d7c:	6113      	str	r3, [r2, #16]
10000d7e:	6853      	ldr	r3, [r2, #4]
10000d80:	f3bf 8f5f 	dmb	sy
10000d84:	465a      	mov	r2, fp
10000d86:	601a      	str	r2, [r3, #0]
10000d88:	f385 8810 	msr	PRIMASK, r5
10000d8c:	e782      	b.n	10000c94 <alarm_pool_alarm_callback+0x24>
10000d8e:	2300      	movs	r3, #0
10000d90:	2600      	movs	r6, #0
10000d92:	4698      	mov	r8, r3
10000d94:	2700      	movs	r7, #0
10000d96:	469a      	mov	sl, r3
10000d98:	2000      	movs	r0, #0
10000d9a:	e7a7      	b.n	10000cec <alarm_pool_alarm_callback+0x7c>
10000d9c:	2900      	cmp	r1, #0
10000d9e:	d101      	bne.n	10000da4 <alarm_pool_alarm_callback+0x134>
10000da0:	2800      	cmp	r0, #0
10000da2:	d19b      	bne.n	10000cdc <alarm_pool_alarm_callback+0x6c>
10000da4:	2101      	movs	r1, #1
10000da6:	0020      	movs	r0, r4
10000da8:	f000 fbe8 	bl	1000157c <ph_remove_head_reserve>
10000dac:	4643      	mov	r3, r8
10000dae:	681e      	ldr	r6, [r3, #0]
10000db0:	685f      	ldr	r7, [r3, #4]
10000db2:	689b      	ldr	r3, [r3, #8]
10000db4:	9a07      	ldr	r2, [sp, #28]
10000db6:	469a      	mov	sl, r3
10000db8:	4643      	mov	r3, r8
10000dba:	68db      	ldr	r3, [r3, #12]
10000dbc:	4698      	mov	r8, r3
10000dbe:	68d3      	ldr	r3, [r2, #12]
10000dc0:	444b      	add	r3, r9
10000dc2:	3b01      	subs	r3, #1
10000dc4:	781b      	ldrb	r3, [r3, #0]
10000dc6:	930a      	str	r3, [sp, #40]	; 0x28
10000dc8:	021b      	lsls	r3, r3, #8
10000dca:	4303      	orrs	r3, r0
10000dcc:	6113      	str	r3, [r2, #16]
10000dce:	2000      	movs	r0, #0
10000dd0:	e78c      	b.n	10000cec <alarm_pool_alarm_callback+0x7c>
10000dd2:	6923      	ldr	r3, [r4, #16]
10000dd4:	2b00      	cmp	r3, #0
10000dd6:	d0b9      	beq.n	10000d4c <alarm_pool_alarm_callback+0xdc>
10000dd8:	0033      	movs	r3, r6
10000dda:	003c      	movs	r4, r7
10000ddc:	1a5b      	subs	r3, r3, r1
10000dde:	4194      	sbcs	r4, r2
10000de0:	001a      	movs	r2, r3
10000de2:	0023      	movs	r3, r4
10000de4:	42a7      	cmp	r7, r4
10000de6:	d819      	bhi.n	10000e1c <alarm_pool_alarm_callback+0x1ac>
10000de8:	429f      	cmp	r7, r3
10000dea:	d01b      	beq.n	10000e24 <alarm_pool_alarm_callback+0x1b4>
10000dec:	4659      	mov	r1, fp
10000dee:	9104      	str	r1, [sp, #16]
10000df0:	2101      	movs	r1, #1
10000df2:	9103      	str	r1, [sp, #12]
10000df4:	4649      	mov	r1, r9
10000df6:	9102      	str	r1, [sp, #8]
10000df8:	4641      	mov	r1, r8
10000dfa:	9101      	str	r1, [sp, #4]
10000dfc:	4651      	mov	r1, sl
10000dfe:	9807      	ldr	r0, [sp, #28]
10000e00:	9100      	str	r1, [sp, #0]
10000e02:	f7ff fea1 	bl	10000b48 <add_alarm_under_lock>
10000e06:	e7b7      	b.n	10000d78 <alarm_pool_alarm_callback+0x108>
10000e08:	f000 f996 	bl	10001138 <time_us_64>
10000e0c:	9a08      	ldr	r2, [sp, #32]
10000e0e:	9b09      	ldr	r3, [sp, #36]	; 0x24
10000e10:	0006      	movs	r6, r0
10000e12:	000f      	movs	r7, r1
10000e14:	1992      	adds	r2, r2, r6
10000e16:	417b      	adcs	r3, r7
10000e18:	4299      	cmp	r1, r3
10000e1a:	d9e5      	bls.n	10000de8 <alarm_pool_alarm_callback+0x178>
10000e1c:	2201      	movs	r2, #1
10000e1e:	4252      	negs	r2, r2
10000e20:	17d3      	asrs	r3, r2, #31
10000e22:	e7e3      	b.n	10000dec <alarm_pool_alarm_callback+0x17c>
10000e24:	4296      	cmp	r6, r2
10000e26:	d9e1      	bls.n	10000dec <alarm_pool_alarm_callback+0x17c>
10000e28:	2201      	movs	r2, #1
10000e2a:	4252      	negs	r2, r2
10000e2c:	17d3      	asrs	r3, r2, #31
10000e2e:	e7dd      	b.n	10000dec <alarm_pool_alarm_callback+0x17c>
10000e30:	20000b00 	.word	0x20000b00
10000e34:	0fffffff 	.word	0x0fffffff

10000e38 <alarm_pool_add_alarm_at.constprop.0>:
10000e38:	b5f8      	push	{r3, r4, r5, r6, r7, lr}
10000e3a:	4657      	mov	r7, sl
10000e3c:	464e      	mov	r6, r9
10000e3e:	46de      	mov	lr, fp
10000e40:	4645      	mov	r5, r8
10000e42:	4691      	mov	r9, r2
10000e44:	b5e0      	push	{r5, r6, r7, lr}
10000e46:	0004      	movs	r4, r0
10000e48:	469a      	mov	sl, r3
10000e4a:	6842      	ldr	r2, [r0, #4]
10000e4c:	f3ef 8810 	mrs	r8, PRIMASK
10000e50:	b672      	cpsid	i
10000e52:	6813      	ldr	r3, [r2, #0]
10000e54:	2b00      	cmp	r3, #0
10000e56:	d0fc      	beq.n	10000e52 <alarm_pool_add_alarm_at.constprop.0+0x1a>
10000e58:	f3bf 8f5f 	dmb	sy
10000e5c:	6826      	ldr	r6, [r4, #0]
10000e5e:	7bb5      	ldrb	r5, [r6, #14]
10000e60:	2d00      	cmp	r5, #0
10000e62:	d04a      	beq.n	10000efa <alarm_pool_add_alarm_at.constprop.0+0xc2>
10000e64:	006f      	lsls	r7, r5, #1
10000e66:	6833      	ldr	r3, [r6, #0]
10000e68:	197f      	adds	r7, r7, r5
10000e6a:	3f03      	subs	r7, #3
10000e6c:	19db      	adds	r3, r3, r7
10000e6e:	785b      	ldrb	r3, [r3, #1]
10000e70:	73b3      	strb	r3, [r6, #14]
10000e72:	2b00      	cmp	r3, #0
10000e74:	d100      	bne.n	10000e78 <alarm_pool_add_alarm_at.constprop.0+0x40>
10000e76:	73f3      	strb	r3, [r6, #15]
10000e78:	4b35      	ldr	r3, [pc, #212]	; (10000f50 <alarm_pool_add_alarm_at.constprop.0+0x118>)
10000e7a:	2200      	movs	r2, #0
10000e7c:	18e9      	adds	r1, r5, r3
10000e7e:	68a3      	ldr	r3, [r4, #8]
10000e80:	0109      	lsls	r1, r1, #4
10000e82:	469c      	mov	ip, r3
10000e84:	464b      	mov	r3, r9
10000e86:	4461      	add	r1, ip
10000e88:	600b      	str	r3, [r1, #0]
10000e8a:	4653      	mov	r3, sl
10000e8c:	604b      	str	r3, [r1, #4]
10000e8e:	4b31      	ldr	r3, [pc, #196]	; (10000f54 <alarm_pool_add_alarm_at.constprop.0+0x11c>)
10000e90:	60ca      	str	r2, [r1, #12]
10000e92:	608b      	str	r3, [r1, #8]
10000e94:	6833      	ldr	r3, [r6, #0]
10000e96:	19db      	adds	r3, r3, r7
10000e98:	709a      	strb	r2, [r3, #2]
10000e9a:	705a      	strb	r2, [r3, #1]
10000e9c:	701a      	strb	r2, [r3, #0]
10000e9e:	7b73      	ldrb	r3, [r6, #13]
10000ea0:	469b      	mov	fp, r3
10000ea2:	2b00      	cmp	r3, #0
10000ea4:	d044      	beq.n	10000f30 <alarm_pool_add_alarm_at.constprop.0+0xf8>
10000ea6:	002a      	movs	r2, r5
10000ea8:	0019      	movs	r1, r3
10000eaa:	68b0      	ldr	r0, [r6, #8]
10000eac:	6873      	ldr	r3, [r6, #4]
10000eae:	4798      	blx	r3
10000eb0:	6832      	ldr	r2, [r6, #0]
10000eb2:	2800      	cmp	r0, #0
10000eb4:	d02f      	beq.n	10000f16 <alarm_pool_add_alarm_at.constprop.0+0xde>
10000eb6:	465b      	mov	r3, fp
10000eb8:	4658      	mov	r0, fp
10000eba:	005b      	lsls	r3, r3, #1
10000ebc:	445b      	add	r3, fp
10000ebe:	19d7      	adds	r7, r2, r7
10000ec0:	3b03      	subs	r3, #3
10000ec2:	70b8      	strb	r0, [r7, #2]
10000ec4:	18d1      	adds	r1, r2, r3
10000ec6:	5cd3      	ldrb	r3, [r2, r3]
10000ec8:	2b00      	cmp	r3, #0
10000eca:	d13e      	bne.n	10000f4a <alarm_pool_add_alarm_at.constprop.0+0x112>
10000ecc:	465b      	mov	r3, fp
10000ece:	700d      	strb	r5, [r1, #0]
10000ed0:	7373      	strb	r3, [r6, #13]
10000ed2:	455d      	cmp	r5, fp
10000ed4:	d02d      	beq.n	10000f32 <alarm_pool_add_alarm_at.constprop.0+0xfa>
10000ed6:	2600      	movs	r6, #0
10000ed8:	68e3      	ldr	r3, [r4, #12]
10000eda:	6862      	ldr	r2, [r4, #4]
10000edc:	195b      	adds	r3, r3, r5
10000ede:	3b01      	subs	r3, #1
10000ee0:	781b      	ldrb	r3, [r3, #0]
10000ee2:	f3bf 8f5f 	dmb	sy
10000ee6:	2100      	movs	r1, #0
10000ee8:	6011      	str	r1, [r2, #0]
10000eea:	f388 8810 	msr	PRIMASK, r8
10000eee:	2000      	movs	r0, #0
10000ef0:	2e00      	cmp	r6, #0
10000ef2:	d10a      	bne.n	10000f0a <alarm_pool_add_alarm_at.constprop.0+0xd2>
10000ef4:	0218      	lsls	r0, r3, #8
10000ef6:	4328      	orrs	r0, r5
10000ef8:	e007      	b.n	10000f0a <alarm_pool_add_alarm_at.constprop.0+0xd2>
10000efa:	6863      	ldr	r3, [r4, #4]
10000efc:	f3bf 8f5f 	dmb	sy
10000f00:	601d      	str	r5, [r3, #0]
10000f02:	f388 8810 	msr	PRIMASK, r8
10000f06:	2001      	movs	r0, #1
10000f08:	4240      	negs	r0, r0
10000f0a:	bc3c      	pop	{r2, r3, r4, r5}
10000f0c:	4690      	mov	r8, r2
10000f0e:	4699      	mov	r9, r3
10000f10:	46a2      	mov	sl, r4
10000f12:	46ab      	mov	fp, r5
10000f14:	bdf8      	pop	{r3, r4, r5, r6, r7, pc}
10000f16:	465b      	mov	r3, fp
10000f18:	005b      	lsls	r3, r3, #1
10000f1a:	445b      	add	r3, fp
10000f1c:	3b03      	subs	r3, #3
10000f1e:	18d3      	adds	r3, r2, r3
10000f20:	709d      	strb	r5, [r3, #2]
10000f22:	19d1      	adds	r1, r2, r7
10000f24:	5dd2      	ldrb	r2, [r2, r7]
10000f26:	2a00      	cmp	r2, #0
10000f28:	d000      	beq.n	10000f2c <alarm_pool_add_alarm_at.constprop.0+0xf4>
10000f2a:	705a      	strb	r2, [r3, #1]
10000f2c:	465b      	mov	r3, fp
10000f2e:	700b      	strb	r3, [r1, #0]
10000f30:	7375      	strb	r5, [r6, #13]
10000f32:	464a      	mov	r2, r9
10000f34:	4653      	mov	r3, sl
10000f36:	7d20      	ldrb	r0, [r4, #20]
10000f38:	f000 f95e 	bl	100011f8 <hardware_alarm_set_target>
10000f3c:	1e06      	subs	r6, r0, #0
10000f3e:	d0ca      	beq.n	10000ed6 <alarm_pool_add_alarm_at.constprop.0+0x9e>
10000f40:	0029      	movs	r1, r5
10000f42:	6820      	ldr	r0, [r4, #0]
10000f44:	f000 fbb8 	bl	100016b8 <ph_delete>
10000f48:	e7c6      	b.n	10000ed8 <alarm_pool_add_alarm_at.constprop.0+0xa0>
10000f4a:	707b      	strb	r3, [r7, #1]
10000f4c:	e7be      	b.n	10000ecc <alarm_pool_add_alarm_at.constprop.0+0x94>
10000f4e:	46c0      	nop			; (mov r8, r8)
10000f50:	0fffffff 	.word	0x0fffffff
10000f54:	10000b41 	.word	0x10000b41

10000f58 <alarm_pool_init_default>:
10000f58:	b570      	push	{r4, r5, r6, lr}
10000f5a:	4c18      	ldr	r4, [pc, #96]	; (10000fbc <alarm_pool_init_default+0x64>)
10000f5c:	6823      	ldr	r3, [r4, #0]
10000f5e:	2b00      	cmp	r3, #0
10000f60:	d000      	beq.n	10000f64 <alarm_pool_init_default+0xc>
10000f62:	bd70      	pop	{r4, r5, r6, pc}
10000f64:	2003      	movs	r0, #3
10000f66:	f000 f8db 	bl	10001120 <hardware_alarm_claim>
10000f6a:	2003      	movs	r0, #3
10000f6c:	f000 f9a6 	bl	100012bc <hardware_alarm_cancel>
10000f70:	4913      	ldr	r1, [pc, #76]	; (10000fc0 <alarm_pool_init_default+0x68>)
10000f72:	2003      	movs	r0, #3
10000f74:	f000 f8fa 	bl	1000116c <hardware_alarm_set_callback>
10000f78:	2018      	movs	r0, #24
10000f7a:	f001 fc53 	bl	10002824 <__wrap_malloc>
10000f7e:	0005      	movs	r5, r0
10000f80:	f7ff fd3e 	bl	10000a00 <next_striped_spin_lock_num>
10000f84:	4b0f      	ldr	r3, [pc, #60]	; (10000fc4 <alarm_pool_init_default+0x6c>)
10000f86:	002a      	movs	r2, r5
10000f88:	469c      	mov	ip, r3
10000f8a:	4460      	add	r0, ip
10000f8c:	0080      	lsls	r0, r0, #2
10000f8e:	490e      	ldr	r1, [pc, #56]	; (10000fc8 <alarm_pool_init_default+0x70>)
10000f90:	6068      	str	r0, [r5, #4]
10000f92:	2010      	movs	r0, #16
10000f94:	f000 f9fc 	bl	10001390 <ph_create>
10000f98:	2110      	movs	r1, #16
10000f9a:	6028      	str	r0, [r5, #0]
10000f9c:	2010      	movs	r0, #16
10000f9e:	f001 fc45 	bl	1000282c <__wrap_calloc>
10000fa2:	2101      	movs	r1, #1
10000fa4:	60a8      	str	r0, [r5, #8]
10000fa6:	2010      	movs	r0, #16
10000fa8:	f001 fc40 	bl	1000282c <__wrap_calloc>
10000fac:	2303      	movs	r3, #3
10000fae:	752b      	strb	r3, [r5, #20]
10000fb0:	4b06      	ldr	r3, [pc, #24]	; (10000fcc <alarm_pool_init_default+0x74>)
10000fb2:	60e8      	str	r0, [r5, #12]
10000fb4:	60dd      	str	r5, [r3, #12]
10000fb6:	6025      	str	r5, [r4, #0]
10000fb8:	e7d3      	b.n	10000f62 <alarm_pool_init_default+0xa>
10000fba:	46c0      	nop			; (mov r8, r8)
10000fbc:	20000aec 	.word	0x20000aec
10000fc0:	10000c71 	.word	0x10000c71
10000fc4:	34000040 	.word	0x34000040
10000fc8:	10000b0d 	.word	0x10000b0d
10000fcc:	20000b00 	.word	0x20000b00

10000fd0 <sleep_us>:
10000fd0:	b5f8      	push	{r3, r4, r5, r6, r7, lr}
10000fd2:	0004      	movs	r4, r0
10000fd4:	000d      	movs	r5, r1
10000fd6:	f000 f8af 	bl	10001138 <time_us_64>
10000fda:	0002      	movs	r2, r0
10000fdc:	000b      	movs	r3, r1
10000fde:	18a4      	adds	r4, r4, r2
10000fe0:	415d      	adcs	r5, r3
10000fe2:	42a9      	cmp	r1, r5
10000fe4:	d82f      	bhi.n	10001046 <sleep_us+0x76>
10000fe6:	d02c      	beq.n	10001042 <sleep_us+0x72>
10000fe8:	2606      	movs	r6, #6
10000fea:	4276      	negs	r6, r6
10000fec:	17f7      	asrs	r7, r6, #31
10000fee:	1936      	adds	r6, r6, r4
10000ff0:	416f      	adcs	r7, r5
10000ff2:	42af      	cmp	r7, r5
10000ff4:	d92e      	bls.n	10001054 <sleep_us+0x84>
10000ff6:	2600      	movs	r6, #0
10000ff8:	2700      	movs	r7, #0
10000ffa:	f000 f89d 	bl	10001138 <time_us_64>
10000ffe:	0032      	movs	r2, r6
10001000:	003b      	movs	r3, r7
10001002:	1a12      	subs	r2, r2, r0
10001004:	418b      	sbcs	r3, r1
10001006:	2b00      	cmp	r3, #0
10001008:	dc07      	bgt.n	1000101a <sleep_us+0x4a>
1000100a:	d004      	beq.n	10001016 <sleep_us+0x46>
1000100c:	0029      	movs	r1, r5
1000100e:	0020      	movs	r0, r4
10001010:	f000 f89c 	bl	1000114c <busy_wait_until>
10001014:	bdf8      	pop	{r3, r4, r5, r6, r7, pc}
10001016:	2a00      	cmp	r2, #0
10001018:	d0f8      	beq.n	1000100c <sleep_us+0x3c>
1000101a:	4b11      	ldr	r3, [pc, #68]	; (10001060 <sleep_us+0x90>)
1000101c:	0032      	movs	r2, r6
1000101e:	6818      	ldr	r0, [r3, #0]
10001020:	003b      	movs	r3, r7
10001022:	f7ff ff09 	bl	10000e38 <alarm_pool_add_alarm_at.constprop.0>
10001026:	2800      	cmp	r0, #0
10001028:	dbf0      	blt.n	1000100c <sleep_us+0x3c>
1000102a:	0038      	movs	r0, r7
1000102c:	4a0d      	ldr	r2, [pc, #52]	; (10001064 <sleep_us+0x94>)
1000102e:	6a53      	ldr	r3, [r2, #36]	; 0x24
10001030:	4298      	cmp	r0, r3
10001032:	d804      	bhi.n	1000103e <sleep_us+0x6e>
10001034:	6a91      	ldr	r1, [r2, #40]	; 0x28
10001036:	428e      	cmp	r6, r1
10001038:	d9e8      	bls.n	1000100c <sleep_us+0x3c>
1000103a:	4298      	cmp	r0, r3
1000103c:	d1e6      	bne.n	1000100c <sleep_us+0x3c>
1000103e:	bf20      	wfe
10001040:	e7f5      	b.n	1000102e <sleep_us+0x5e>
10001042:	42a0      	cmp	r0, r4
10001044:	d9d0      	bls.n	10000fe8 <sleep_us+0x18>
10001046:	2401      	movs	r4, #1
10001048:	4264      	negs	r4, r4
1000104a:	17e5      	asrs	r5, r4, #31
1000104c:	2607      	movs	r6, #7
1000104e:	4276      	negs	r6, r6
10001050:	17f7      	asrs	r7, r6, #31
10001052:	e7d2      	b.n	10000ffa <sleep_us+0x2a>
10001054:	42af      	cmp	r7, r5
10001056:	d1d0      	bne.n	10000ffa <sleep_us+0x2a>
10001058:	42a6      	cmp	r6, r4
1000105a:	d8cc      	bhi.n	10000ff6 <sleep_us+0x26>
1000105c:	e7cd      	b.n	10000ffa <sleep_us+0x2a>
1000105e:	46c0      	nop			; (mov r8, r8)
10001060:	20000aec 	.word	0x20000aec
10001064:	40054000 	.word	0x40054000

10001068 <hardware_alarm_irq_handler>:
10001068:	b5f0      	push	{r4, r5, r6, r7, lr}
1000106a:	46d6      	mov	lr, sl
1000106c:	464f      	mov	r7, r9
1000106e:	4646      	mov	r6, r8
10001070:	b5c0      	push	{r6, r7, lr}
10001072:	f3ef 8305 	mrs	r3, IPSR
10001076:	223f      	movs	r2, #63	; 0x3f
10001078:	4013      	ands	r3, r2
1000107a:	0018      	movs	r0, r3
1000107c:	3810      	subs	r0, #16
1000107e:	f3ef 8c10 	mrs	ip, PRIMASK
10001082:	b672      	cpsid	i
10001084:	4d20      	ldr	r5, [pc, #128]	; (10001108 <hardware_alarm_irq_handler+0xa0>)
10001086:	682a      	ldr	r2, [r5, #0]
10001088:	2a00      	cmp	r2, #0
1000108a:	d0fc      	beq.n	10001086 <hardware_alarm_irq_handler+0x1e>
1000108c:	f3bf 8f5f 	dmb	sy
10001090:	2201      	movs	r2, #1
10001092:	0011      	movs	r1, r2
10001094:	4081      	lsls	r1, r0
10001096:	4c1d      	ldr	r4, [pc, #116]	; (1000110c <hardware_alarm_irq_handler+0xa4>)
10001098:	4688      	mov	r8, r1
1000109a:	6361      	str	r1, [r4, #52]	; 0x34
1000109c:	491c      	ldr	r1, [pc, #112]	; (10001110 <hardware_alarm_irq_handler+0xa8>)
1000109e:	0017      	movs	r7, r2
100010a0:	780e      	ldrb	r6, [r1, #0]
100010a2:	468a      	mov	sl, r1
100010a4:	0031      	movs	r1, r6
100010a6:	40c1      	lsrs	r1, r0
100010a8:	400f      	ands	r7, r1
100010aa:	420a      	tst	r2, r1
100010ac:	d015      	beq.n	100010da <hardware_alarm_irq_handler+0x72>
100010ae:	4919      	ldr	r1, [pc, #100]	; (10001114 <hardware_alarm_irq_handler+0xac>)
100010b0:	0082      	lsls	r2, r0, #2
100010b2:	6a64      	ldr	r4, [r4, #36]	; 0x24
100010b4:	5851      	ldr	r1, [r2, r1]
100010b6:	428c      	cmp	r4, r1
100010b8:	d319      	bcc.n	100010ee <hardware_alarm_irq_handler+0x86>
100010ba:	4b17      	ldr	r3, [pc, #92]	; (10001118 <hardware_alarm_irq_handler+0xb0>)
100010bc:	58d2      	ldr	r2, [r2, r3]
100010be:	4643      	mov	r3, r8
100010c0:	439e      	bics	r6, r3
100010c2:	4653      	mov	r3, sl
100010c4:	701e      	strb	r6, [r3, #0]
100010c6:	f3bf 8f5f 	dmb	sy
100010ca:	2300      	movs	r3, #0
100010cc:	602b      	str	r3, [r5, #0]
100010ce:	f38c 8810 	msr	PRIMASK, ip
100010d2:	2a00      	cmp	r2, #0
100010d4:	d006      	beq.n	100010e4 <hardware_alarm_irq_handler+0x7c>
100010d6:	4790      	blx	r2
100010d8:	e004      	b.n	100010e4 <hardware_alarm_irq_handler+0x7c>
100010da:	f3bf 8f5f 	dmb	sy
100010de:	602f      	str	r7, [r5, #0]
100010e0:	f38c 8810 	msr	PRIMASK, ip
100010e4:	bc1c      	pop	{r2, r3, r4}
100010e6:	4690      	mov	r8, r2
100010e8:	4699      	mov	r9, r3
100010ea:	46a2      	mov	sl, r4
100010ec:	bdf0      	pop	{r4, r5, r6, r7, pc}
100010ee:	4a0b      	ldr	r2, [pc, #44]	; (1000111c <hardware_alarm_irq_handler+0xb4>)
100010f0:	009b      	lsls	r3, r3, #2
100010f2:	4690      	mov	r8, r2
100010f4:	4443      	add	r3, r8
100010f6:	681a      	ldr	r2, [r3, #0]
100010f8:	601a      	str	r2, [r3, #0]
100010fa:	f3bf 8f5f 	dmb	sy
100010fe:	2300      	movs	r3, #0
10001100:	602b      	str	r3, [r5, #0]
10001102:	f38c 8810 	msr	PRIMASK, ip
10001106:	e7ed      	b.n	100010e4 <hardware_alarm_irq_handler+0x7c>
10001108:	d0000128 	.word	0xd0000128
1000110c:	40054000 	.word	0x40054000
10001110:	20000b29 	.word	0x20000b29
10001114:	20000b10 	.word	0x20000b10
10001118:	20000ab4 	.word	0x20000ab4
1000111c:	40053fd0 	.word	0x40053fd0

10001120 <hardware_alarm_claim>:
10001120:	b510      	push	{r4, lr}
10001122:	0001      	movs	r1, r0
10001124:	4a02      	ldr	r2, [pc, #8]	; (10001130 <hardware_alarm_claim+0x10>)
10001126:	4803      	ldr	r0, [pc, #12]	; (10001134 <hardware_alarm_claim+0x14>)
10001128:	f7ff fc2c 	bl	10000984 <hw_claim_or_assert>
1000112c:	bd10      	pop	{r4, pc}
1000112e:	46c0      	nop			; (mov r8, r8)
10001130:	100e8ccc 	.word	0x100e8ccc
10001134:	20000b24 	.word	0x20000b24

10001138 <time_us_64>:
10001138:	4b03      	ldr	r3, [pc, #12]	; (10001148 <time_us_64+0x10>)
1000113a:	6a59      	ldr	r1, [r3, #36]	; 0x24
1000113c:	000a      	movs	r2, r1
1000113e:	6a98      	ldr	r0, [r3, #40]	; 0x28
10001140:	6a59      	ldr	r1, [r3, #36]	; 0x24
10001142:	428a      	cmp	r2, r1
10001144:	d1fa      	bne.n	1000113c <time_us_64+0x4>
10001146:	4770      	bx	lr
10001148:	40054000 	.word	0x40054000

1000114c <busy_wait_until>:
1000114c:	4a06      	ldr	r2, [pc, #24]	; (10001168 <busy_wait_until+0x1c>)
1000114e:	6a53      	ldr	r3, [r2, #36]	; 0x24
10001150:	4299      	cmp	r1, r3
10001152:	d8fc      	bhi.n	1000114e <busy_wait_until+0x2>
10001154:	d107      	bne.n	10001166 <busy_wait_until+0x1a>
10001156:	4b04      	ldr	r3, [pc, #16]	; (10001168 <busy_wait_until+0x1c>)
10001158:	e002      	b.n	10001160 <busy_wait_until+0x14>
1000115a:	6a5a      	ldr	r2, [r3, #36]	; 0x24
1000115c:	4291      	cmp	r1, r2
1000115e:	d102      	bne.n	10001166 <busy_wait_until+0x1a>
10001160:	6a9a      	ldr	r2, [r3, #40]	; 0x28
10001162:	4282      	cmp	r2, r0
10001164:	d3f9      	bcc.n	1000115a <busy_wait_until+0xe>
10001166:	4770      	bx	lr
10001168:	40054000 	.word	0x40054000

1000116c <hardware_alarm_set_callback>:
1000116c:	b570      	push	{r4, r5, r6, lr}
1000116e:	0004      	movs	r4, r0
10001170:	000d      	movs	r5, r1
10001172:	f3ef 8610 	mrs	r6, PRIMASK
10001176:	b672      	cpsid	i
10001178:	4a1a      	ldr	r2, [pc, #104]	; (100011e4 <hardware_alarm_set_callback+0x78>)
1000117a:	6813      	ldr	r3, [r2, #0]
1000117c:	2b00      	cmp	r3, #0
1000117e:	d0fc      	beq.n	1000117a <hardware_alarm_set_callback+0xe>
10001180:	f3bf 8f5f 	dmb	sy
10001184:	2d00      	cmp	r5, #0
10001186:	d01b      	beq.n	100011c0 <hardware_alarm_set_callback+0x54>
10001188:	0020      	movs	r0, r4
1000118a:	f000 fdc9 	bl	10001d20 <irq_get_vtable_handler>
1000118e:	4916      	ldr	r1, [pc, #88]	; (100011e8 <hardware_alarm_set_callback+0x7c>)
10001190:	4281      	cmp	r1, r0
10001192:	d00a      	beq.n	100011aa <hardware_alarm_set_callback+0x3e>
10001194:	0020      	movs	r0, r4
10001196:	f000 fdcb 	bl	10001d30 <irq_set_exclusive_handler>
1000119a:	2101      	movs	r1, #1
1000119c:	0020      	movs	r0, r4
1000119e:	f000 fdad 	bl	10001cfc <irq_set_enabled>
100011a2:	2301      	movs	r3, #1
100011a4:	40a3      	lsls	r3, r4
100011a6:	4a11      	ldr	r2, [pc, #68]	; (100011ec <hardware_alarm_set_callback+0x80>)
100011a8:	6013      	str	r3, [r2, #0]
100011aa:	4b11      	ldr	r3, [pc, #68]	; (100011f0 <hardware_alarm_set_callback+0x84>)
100011ac:	00a4      	lsls	r4, r4, #2
100011ae:	50e5      	str	r5, [r4, r3]
100011b0:	f3bf 8f5f 	dmb	sy
100011b4:	2200      	movs	r2, #0
100011b6:	4b0b      	ldr	r3, [pc, #44]	; (100011e4 <hardware_alarm_set_callback+0x78>)
100011b8:	601a      	str	r2, [r3, #0]
100011ba:	f386 8810 	msr	PRIMASK, r6
100011be:	bd70      	pop	{r4, r5, r6, pc}
100011c0:	4b0b      	ldr	r3, [pc, #44]	; (100011f0 <hardware_alarm_set_callback+0x84>)
100011c2:	00a2      	lsls	r2, r4, #2
100011c4:	50d5      	str	r5, [r2, r3]
100011c6:	2201      	movs	r2, #1
100011c8:	40a2      	lsls	r2, r4
100011ca:	490a      	ldr	r1, [pc, #40]	; (100011f4 <hardware_alarm_set_callback+0x88>)
100011cc:	0020      	movs	r0, r4
100011ce:	780b      	ldrb	r3, [r1, #0]
100011d0:	4393      	bics	r3, r2
100011d2:	700b      	strb	r3, [r1, #0]
100011d4:	4904      	ldr	r1, [pc, #16]	; (100011e8 <hardware_alarm_set_callback+0x7c>)
100011d6:	f000 fdd5 	bl	10001d84 <irq_remove_handler>
100011da:	2100      	movs	r1, #0
100011dc:	0020      	movs	r0, r4
100011de:	f000 fd8d 	bl	10001cfc <irq_set_enabled>
100011e2:	e7e5      	b.n	100011b0 <hardware_alarm_set_callback+0x44>
100011e4:	d0000128 	.word	0xd0000128
100011e8:	10001069 	.word	0x10001069
100011ec:	40056038 	.word	0x40056038
100011f0:	20000ab4 	.word	0x20000ab4
100011f4:	20000b29 	.word	0x20000b29

100011f8 <hardware_alarm_set_target>:
100011f8:	b5f0      	push	{r4, r5, r6, r7, lr}
100011fa:	46ce      	mov	lr, r9
100011fc:	4647      	mov	r7, r8
100011fe:	b580      	push	{r7, lr}
10001200:	4c2a      	ldr	r4, [pc, #168]	; (100012ac <hardware_alarm_set_target+0xb4>)
10001202:	6a61      	ldr	r1, [r4, #36]	; 0x24
10001204:	000d      	movs	r5, r1
10001206:	6aa6      	ldr	r6, [r4, #40]	; 0x28
10001208:	6a61      	ldr	r1, [r4, #36]	; 0x24
1000120a:	42a9      	cmp	r1, r5
1000120c:	d1fa      	bne.n	10001204 <hardware_alarm_set_target+0xc>
1000120e:	428b      	cmp	r3, r1
10001210:	d807      	bhi.n	10001222 <hardware_alarm_set_target+0x2a>
10001212:	d004      	beq.n	1000121e <hardware_alarm_set_target+0x26>
10001214:	2001      	movs	r0, #1
10001216:	bc0c      	pop	{r2, r3}
10001218:	4690      	mov	r8, r2
1000121a:	4699      	mov	r9, r3
1000121c:	bdf0      	pop	{r4, r5, r6, r7, pc}
1000121e:	42b2      	cmp	r2, r6
10001220:	d9f8      	bls.n	10001214 <hardware_alarm_set_target+0x1c>
10001222:	f3ef 8810 	mrs	r8, PRIMASK
10001226:	b672      	cpsid	i
10001228:	4c21      	ldr	r4, [pc, #132]	; (100012b0 <hardware_alarm_set_target+0xb8>)
1000122a:	6821      	ldr	r1, [r4, #0]
1000122c:	2900      	cmp	r1, #0
1000122e:	d0fc      	beq.n	1000122a <hardware_alarm_set_target+0x32>
10001230:	f3bf 8f5f 	dmb	sy
10001234:	2501      	movs	r5, #1
10001236:	4085      	lsls	r5, r0
10001238:	4c1c      	ldr	r4, [pc, #112]	; (100012ac <hardware_alarm_set_target+0xb4>)
1000123a:	4e1e      	ldr	r6, [pc, #120]	; (100012b4 <hardware_alarm_set_target+0xbc>)
1000123c:	6365      	str	r5, [r4, #52]	; 0x34
1000123e:	b2e9      	uxtb	r1, r5
10001240:	468c      	mov	ip, r1
10001242:	7831      	ldrb	r1, [r6, #0]
10001244:	4689      	mov	r9, r1
10001246:	4661      	mov	r1, ip
10001248:	464f      	mov	r7, r9
1000124a:	4339      	orrs	r1, r7
1000124c:	7031      	strb	r1, [r6, #0]
1000124e:	1d01      	adds	r1, r0, #4
10001250:	0089      	lsls	r1, r1, #2
10001252:	510a      	str	r2, [r1, r4]
10001254:	4918      	ldr	r1, [pc, #96]	; (100012b8 <hardware_alarm_set_target+0xc0>)
10001256:	0080      	lsls	r0, r0, #2
10001258:	5043      	str	r3, [r0, r1]
1000125a:	6a21      	ldr	r1, [r4, #32]
1000125c:	2000      	movs	r0, #0
1000125e:	4229      	tst	r1, r5
10001260:	d00c      	beq.n	1000127c <hardware_alarm_set_target+0x84>
10001262:	0020      	movs	r0, r4
10001264:	6a61      	ldr	r1, [r4, #36]	; 0x24
10001266:	000c      	movs	r4, r1
10001268:	6a87      	ldr	r7, [r0, #40]	; 0x28
1000126a:	6a41      	ldr	r1, [r0, #36]	; 0x24
1000126c:	42a1      	cmp	r1, r4
1000126e:	d1fa      	bne.n	10001266 <hardware_alarm_set_target+0x6e>
10001270:	428b      	cmp	r3, r1
10001272:	d802      	bhi.n	1000127a <hardware_alarm_set_target+0x82>
10001274:	d10a      	bne.n	1000128c <hardware_alarm_set_target+0x94>
10001276:	42ba      	cmp	r2, r7
10001278:	d908      	bls.n	1000128c <hardware_alarm_set_target+0x94>
1000127a:	2000      	movs	r0, #0
1000127c:	f3bf 8f5f 	dmb	sy
10001280:	2200      	movs	r2, #0
10001282:	4b0b      	ldr	r3, [pc, #44]	; (100012b0 <hardware_alarm_set_target+0xb8>)
10001284:	601a      	str	r2, [r3, #0]
10001286:	f388 8810 	msr	PRIMASK, r8
1000128a:	e7c4      	b.n	10001216 <hardware_alarm_set_target+0x1e>
1000128c:	4b07      	ldr	r3, [pc, #28]	; (100012ac <hardware_alarm_set_target+0xb4>)
1000128e:	464f      	mov	r7, r9
10001290:	621d      	str	r5, [r3, #32]
10001292:	635d      	str	r5, [r3, #52]	; 0x34
10001294:	4663      	mov	r3, ip
10001296:	439f      	bics	r7, r3
10001298:	2001      	movs	r0, #1
1000129a:	7037      	strb	r7, [r6, #0]
1000129c:	f3bf 8f5f 	dmb	sy
100012a0:	2200      	movs	r2, #0
100012a2:	4b03      	ldr	r3, [pc, #12]	; (100012b0 <hardware_alarm_set_target+0xb8>)
100012a4:	601a      	str	r2, [r3, #0]
100012a6:	f388 8810 	msr	PRIMASK, r8
100012aa:	e7b4      	b.n	10001216 <hardware_alarm_set_target+0x1e>
100012ac:	40054000 	.word	0x40054000
100012b0:	d0000128 	.word	0xd0000128
100012b4:	20000b29 	.word	0x20000b29
100012b8:	20000b10 	.word	0x20000b10

100012bc <hardware_alarm_cancel>:
100012bc:	b510      	push	{r4, lr}
100012be:	f3ef 8410 	mrs	r4, PRIMASK
100012c2:	b672      	cpsid	i
100012c4:	490a      	ldr	r1, [pc, #40]	; (100012f0 <hardware_alarm_cancel+0x34>)
100012c6:	680b      	ldr	r3, [r1, #0]
100012c8:	2b00      	cmp	r3, #0
100012ca:	d0fc      	beq.n	100012c6 <hardware_alarm_cancel+0xa>
100012cc:	f3bf 8f5f 	dmb	sy
100012d0:	2301      	movs	r3, #1
100012d2:	4083      	lsls	r3, r0
100012d4:	4a07      	ldr	r2, [pc, #28]	; (100012f4 <hardware_alarm_cancel+0x38>)
100012d6:	4808      	ldr	r0, [pc, #32]	; (100012f8 <hardware_alarm_cancel+0x3c>)
100012d8:	6213      	str	r3, [r2, #32]
100012da:	7802      	ldrb	r2, [r0, #0]
100012dc:	439a      	bics	r2, r3
100012de:	7002      	strb	r2, [r0, #0]
100012e0:	f3bf 8f5f 	dmb	sy
100012e4:	2300      	movs	r3, #0
100012e6:	600b      	str	r3, [r1, #0]
100012e8:	f384 8810 	msr	PRIMASK, r4
100012ec:	bd10      	pop	{r4, pc}
100012ee:	46c0      	nop			; (mov r8, r8)
100012f0:	d0000128 	.word	0xd0000128
100012f4:	40054000 	.word	0x40054000
100012f8:	20000b29 	.word	0x20000b29

100012fc <lock_init>:
100012fc:	4b02      	ldr	r3, [pc, #8]	; (10001308 <lock_init+0xc>)
100012fe:	469c      	mov	ip, r3
10001300:	4461      	add	r1, ip
10001302:	0089      	lsls	r1, r1, #2
10001304:	6001      	str	r1, [r0, #0]
10001306:	4770      	bx	lr
10001308:	34000040 	.word	0x34000040

1000130c <mutex_init>:
1000130c:	b510      	push	{r4, lr}
1000130e:	0004      	movs	r4, r0
10001310:	f7ff fb76 	bl	10000a00 <next_striped_spin_lock_num>
10001314:	0001      	movs	r1, r0
10001316:	0020      	movs	r0, r4
10001318:	f7ff fff0 	bl	100012fc <lock_init>
1000131c:	23ff      	movs	r3, #255	; 0xff
1000131e:	7123      	strb	r3, [r4, #4]
10001320:	f3bf 8f5f 	dmb	sy
10001324:	bd10      	pop	{r4, pc}
10001326:	46c0      	nop			; (mov r8, r8)

10001328 <ph_merge_nodes>:
10001328:	b570      	push	{r4, r5, r6, lr}
1000132a:	0005      	movs	r5, r0
1000132c:	000e      	movs	r6, r1
1000132e:	0014      	movs	r4, r2
10001330:	2900      	cmp	r1, #0
10001332:	d024      	beq.n	1000137e <ph_merge_nodes+0x56>
10001334:	2a00      	cmp	r2, #0
10001336:	d024      	beq.n	10001382 <ph_merge_nodes+0x5a>
10001338:	6880      	ldr	r0, [r0, #8]
1000133a:	686b      	ldr	r3, [r5, #4]
1000133c:	4798      	blx	r3
1000133e:	6829      	ldr	r1, [r5, #0]
10001340:	2800      	cmp	r0, #0
10001342:	d00e      	beq.n	10001362 <ph_merge_nodes+0x3a>
10001344:	0063      	lsls	r3, r4, #1
10001346:	191b      	adds	r3, r3, r4
10001348:	0072      	lsls	r2, r6, #1
1000134a:	3b03      	subs	r3, #3
1000134c:	1992      	adds	r2, r2, r6
1000134e:	18cb      	adds	r3, r1, r3
10001350:	3a03      	subs	r2, #3
10001352:	709e      	strb	r6, [r3, #2]
10001354:	1888      	adds	r0, r1, r2
10001356:	5c8a      	ldrb	r2, [r1, r2]
10001358:	2a00      	cmp	r2, #0
1000135a:	d114      	bne.n	10001386 <ph_merge_nodes+0x5e>
1000135c:	7004      	strb	r4, [r0, #0]
1000135e:	0030      	movs	r0, r6
10001360:	e00e      	b.n	10001380 <ph_merge_nodes+0x58>
10001362:	0073      	lsls	r3, r6, #1
10001364:	199b      	adds	r3, r3, r6
10001366:	0062      	lsls	r2, r4, #1
10001368:	3b03      	subs	r3, #3
1000136a:	1912      	adds	r2, r2, r4
1000136c:	18cb      	adds	r3, r1, r3
1000136e:	3a03      	subs	r2, #3
10001370:	709c      	strb	r4, [r3, #2]
10001372:	1888      	adds	r0, r1, r2
10001374:	5c8a      	ldrb	r2, [r1, r2]
10001376:	2a00      	cmp	r2, #0
10001378:	d000      	beq.n	1000137c <ph_merge_nodes+0x54>
1000137a:	705a      	strb	r2, [r3, #1]
1000137c:	7006      	strb	r6, [r0, #0]
1000137e:	0020      	movs	r0, r4
10001380:	bd70      	pop	{r4, r5, r6, pc}
10001382:	0008      	movs	r0, r1
10001384:	e7fc      	b.n	10001380 <ph_merge_nodes+0x58>
10001386:	705a      	strb	r2, [r3, #1]
10001388:	7004      	strb	r4, [r0, #0]
1000138a:	0030      	movs	r0, r6
1000138c:	e7f8      	b.n	10001380 <ph_merge_nodes+0x58>
1000138e:	46c0      	nop			; (mov r8, r8)

10001390 <ph_create>:
10001390:	b5f0      	push	{r4, r5, r6, r7, lr}
10001392:	46c6      	mov	lr, r8
10001394:	0005      	movs	r5, r0
10001396:	000f      	movs	r7, r1
10001398:	b500      	push	{lr}
1000139a:	2110      	movs	r1, #16
1000139c:	2001      	movs	r0, #1
1000139e:	0016      	movs	r6, r2
100013a0:	f001 fa44 	bl	1000282c <__wrap_calloc>
100013a4:	b2eb      	uxtb	r3, r5
100013a6:	0004      	movs	r4, r0
100013a8:	7303      	strb	r3, [r0, #12]
100013aa:	2103      	movs	r1, #3
100013ac:	6047      	str	r7, [r0, #4]
100013ae:	0028      	movs	r0, r5
100013b0:	4698      	mov	r8, r3
100013b2:	f001 fa3b 	bl	1000282c <__wrap_calloc>
100013b6:	2300      	movs	r3, #0
100013b8:	7363      	strb	r3, [r4, #13]
100013ba:	3301      	adds	r3, #1
100013bc:	73a3      	strb	r3, [r4, #14]
100013be:	4643      	mov	r3, r8
100013c0:	21ff      	movs	r1, #255	; 0xff
100013c2:	73e3      	strb	r3, [r4, #15]
100013c4:	23fe      	movs	r3, #254	; 0xfe
100013c6:	6020      	str	r0, [r4, #0]
100013c8:	60a6      	str	r6, [r4, #8]
100013ca:	4029      	ands	r1, r5
100013cc:	422b      	tst	r3, r5
100013ce:	d006      	beq.n	100013de <ph_create+0x4e>
100013d0:	1c42      	adds	r2, r0, #1
100013d2:	3bfd      	subs	r3, #253	; 0xfd
100013d4:	3301      	adds	r3, #1
100013d6:	7013      	strb	r3, [r2, #0]
100013d8:	3203      	adds	r2, #3
100013da:	428b      	cmp	r3, r1
100013dc:	d3fa      	bcc.n	100013d4 <ph_create+0x44>
100013de:	004b      	lsls	r3, r1, #1
100013e0:	1859      	adds	r1, r3, r1
100013e2:	2300      	movs	r3, #0
100013e4:	1840      	adds	r0, r0, r1
100013e6:	3803      	subs	r0, #3
100013e8:	7043      	strb	r3, [r0, #1]
100013ea:	0020      	movs	r0, r4
100013ec:	bc04      	pop	{r2}
100013ee:	4690      	mov	r8, r2
100013f0:	bdf0      	pop	{r4, r5, r6, r7, pc}
100013f2:	46c0      	nop			; (mov r8, r8)

100013f4 <ph_merge_two_pass>:
100013f4:	b5f8      	push	{r3, r4, r5, r6, r7, lr}
100013f6:	46ce      	mov	lr, r9
100013f8:	4647      	mov	r7, r8
100013fa:	0006      	movs	r6, r0
100013fc:	000c      	movs	r4, r1
100013fe:	b580      	push	{r7, lr}
10001400:	2900      	cmp	r1, #0
10001402:	d007      	beq.n	10001414 <ph_merge_two_pass+0x20>
10001404:	004d      	lsls	r5, r1, #1
10001406:	6803      	ldr	r3, [r0, #0]
10001408:	186d      	adds	r5, r5, r1
1000140a:	3d03      	subs	r5, #3
1000140c:	195a      	adds	r2, r3, r5
1000140e:	7857      	ldrb	r7, [r2, #1]
10001410:	2f00      	cmp	r7, #0
10001412:	d104      	bne.n	1000141e <ph_merge_two_pass+0x2a>
10001414:	0020      	movs	r0, r4
10001416:	bc0c      	pop	{r2, r3}
10001418:	4690      	mov	r8, r2
1000141a:	4699      	mov	r9, r3
1000141c:	bdf8      	pop	{r3, r4, r5, r6, r7, pc}
1000141e:	0079      	lsls	r1, r7, #1
10001420:	19c9      	adds	r1, r1, r7
10001422:	3903      	subs	r1, #3
10001424:	4688      	mov	r8, r1
10001426:	4443      	add	r3, r8
10001428:	7859      	ldrb	r1, [r3, #1]
1000142a:	4689      	mov	r9, r1
1000142c:	2100      	movs	r1, #0
1000142e:	7059      	strb	r1, [r3, #1]
10001430:	7051      	strb	r1, [r2, #1]
10001432:	6873      	ldr	r3, [r6, #4]
10001434:	003a      	movs	r2, r7
10001436:	0021      	movs	r1, r4
10001438:	6880      	ldr	r0, [r0, #8]
1000143a:	4798      	blx	r3
1000143c:	6833      	ldr	r3, [r6, #0]
1000143e:	2800      	cmp	r0, #0
10001440:	d014      	beq.n	1000146c <ph_merge_two_pass+0x78>
10001442:	4642      	mov	r2, r8
10001444:	189a      	adds	r2, r3, r2
10001446:	7094      	strb	r4, [r2, #2]
10001448:	1959      	adds	r1, r3, r5
1000144a:	5d5b      	ldrb	r3, [r3, r5]
1000144c:	2b00      	cmp	r3, #0
1000144e:	d000      	beq.n	10001452 <ph_merge_two_pass+0x5e>
10001450:	7053      	strb	r3, [r2, #1]
10001452:	700f      	strb	r7, [r1, #0]
10001454:	0027      	movs	r7, r4
10001456:	4649      	mov	r1, r9
10001458:	0030      	movs	r0, r6
1000145a:	f7ff ffcb 	bl	100013f4 <ph_merge_two_pass>
1000145e:	0039      	movs	r1, r7
10001460:	0002      	movs	r2, r0
10001462:	0030      	movs	r0, r6
10001464:	f7ff ff60 	bl	10001328 <ph_merge_nodes>
10001468:	0004      	movs	r4, r0
1000146a:	e7d3      	b.n	10001414 <ph_merge_two_pass+0x20>
1000146c:	4642      	mov	r2, r8
1000146e:	4641      	mov	r1, r8
10001470:	195d      	adds	r5, r3, r5
10001472:	70af      	strb	r7, [r5, #2]
10001474:	189a      	adds	r2, r3, r2
10001476:	5c5b      	ldrb	r3, [r3, r1]
10001478:	2b00      	cmp	r3, #0
1000147a:	d000      	beq.n	1000147e <ph_merge_two_pass+0x8a>
1000147c:	706b      	strb	r3, [r5, #1]
1000147e:	7014      	strb	r4, [r2, #0]
10001480:	e7e9      	b.n	10001456 <ph_merge_two_pass+0x62>
10001482:	46c0      	nop			; (mov r8, r8)

10001484 <ph_remove_any_head>:
10001484:	b5f0      	push	{r4, r5, r6, r7, lr}
10001486:	4657      	mov	r7, sl
10001488:	4645      	mov	r5, r8
1000148a:	46de      	mov	lr, fp
1000148c:	464e      	mov	r6, r9
1000148e:	b5e0      	push	{r5, r6, r7, lr}
10001490:	000d      	movs	r5, r1
10001492:	006b      	lsls	r3, r5, #1
10001494:	6801      	ldr	r1, [r0, #0]
10001496:	195b      	adds	r3, r3, r5
10001498:	1edf      	subs	r7, r3, #3
1000149a:	0004      	movs	r4, r0
1000149c:	5dc8      	ldrb	r0, [r1, r7]
1000149e:	b083      	sub	sp, #12
100014a0:	9201      	str	r2, [sp, #4]
100014a2:	19ca      	adds	r2, r1, r7
100014a4:	2800      	cmp	r0, #0
100014a6:	d04c      	beq.n	10001542 <ph_remove_any_head+0xbe>
100014a8:	0043      	lsls	r3, r0, #1
100014aa:	181b      	adds	r3, r3, r0
100014ac:	3b03      	subs	r3, #3
100014ae:	18cb      	adds	r3, r1, r3
100014b0:	785e      	ldrb	r6, [r3, #1]
100014b2:	46b4      	mov	ip, r6
100014b4:	2e00      	cmp	r6, #0
100014b6:	d116      	bne.n	100014e6 <ph_remove_any_head+0x62>
100014b8:	9e01      	ldr	r6, [sp, #4]
100014ba:	2e00      	cmp	r6, #0
100014bc:	d13e      	bne.n	1000153c <ph_remove_any_head+0xb8>
100014be:	7be6      	ldrb	r6, [r4, #15]
100014c0:	2e00      	cmp	r6, #0
100014c2:	d004      	beq.n	100014ce <ph_remove_any_head+0x4a>
100014c4:	0073      	lsls	r3, r6, #1
100014c6:	199b      	adds	r3, r3, r6
100014c8:	18cb      	adds	r3, r1, r3
100014ca:	3b03      	subs	r3, #3
100014cc:	705d      	strb	r5, [r3, #1]
100014ce:	73e5      	strb	r5, [r4, #15]
100014d0:	2800      	cmp	r0, #0
100014d2:	d12f      	bne.n	10001534 <ph_remove_any_head+0xb0>
100014d4:	2300      	movs	r3, #0
100014d6:	7053      	strb	r3, [r2, #1]
100014d8:	b003      	add	sp, #12
100014da:	bc3c      	pop	{r2, r3, r4, r5}
100014dc:	4690      	mov	r8, r2
100014de:	4699      	mov	r9, r3
100014e0:	46a2      	mov	sl, r4
100014e2:	46ab      	mov	fp, r5
100014e4:	bdf0      	pop	{r4, r5, r6, r7, pc}
100014e6:	0072      	lsls	r2, r6, #1
100014e8:	4462      	add	r2, ip
100014ea:	3a03      	subs	r2, #3
100014ec:	1889      	adds	r1, r1, r2
100014ee:	784a      	ldrb	r2, [r1, #1]
100014f0:	4690      	mov	r8, r2
100014f2:	2200      	movs	r2, #0
100014f4:	704a      	strb	r2, [r1, #1]
100014f6:	4691      	mov	r9, r2
100014f8:	705a      	strb	r2, [r3, #1]
100014fa:	0001      	movs	r1, r0
100014fc:	0032      	movs	r2, r6
100014fe:	0020      	movs	r0, r4
10001500:	f7ff ff12 	bl	10001328 <ph_merge_nodes>
10001504:	4643      	mov	r3, r8
10001506:	4682      	mov	sl, r0
10001508:	2b00      	cmp	r3, #0
1000150a:	d007      	beq.n	1000151c <ph_remove_any_head+0x98>
1000150c:	005b      	lsls	r3, r3, #1
1000150e:	6821      	ldr	r1, [r4, #0]
10001510:	4443      	add	r3, r8
10001512:	3b03      	subs	r3, #3
10001514:	18cb      	adds	r3, r1, r3
10001516:	785a      	ldrb	r2, [r3, #1]
10001518:	2a00      	cmp	r2, #0
1000151a:	d116      	bne.n	1000154a <ph_remove_any_head+0xc6>
1000151c:	4642      	mov	r2, r8
1000151e:	4651      	mov	r1, sl
10001520:	0020      	movs	r0, r4
10001522:	f7ff ff01 	bl	10001328 <ph_merge_nodes>
10001526:	6821      	ldr	r1, [r4, #0]
10001528:	9b01      	ldr	r3, [sp, #4]
1000152a:	19ca      	adds	r2, r1, r7
1000152c:	2b00      	cmp	r3, #0
1000152e:	d0c6      	beq.n	100014be <ph_remove_any_head+0x3a>
10001530:	2800      	cmp	r0, #0
10001532:	d0cf      	beq.n	100014d4 <ph_remove_any_head+0x50>
10001534:	0043      	lsls	r3, r0, #1
10001536:	181b      	adds	r3, r3, r0
10001538:	3b03      	subs	r3, #3
1000153a:	18cb      	adds	r3, r1, r3
1000153c:	2100      	movs	r1, #0
1000153e:	7099      	strb	r1, [r3, #2]
10001540:	e7c8      	b.n	100014d4 <ph_remove_any_head+0x50>
10001542:	9b01      	ldr	r3, [sp, #4]
10001544:	2b00      	cmp	r3, #0
10001546:	d1c5      	bne.n	100014d4 <ph_remove_any_head+0x50>
10001548:	e7b9      	b.n	100014be <ph_remove_any_head+0x3a>
1000154a:	0050      	lsls	r0, r2, #1
1000154c:	1880      	adds	r0, r0, r2
1000154e:	3803      	subs	r0, #3
10001550:	1809      	adds	r1, r1, r0
10001552:	7848      	ldrb	r0, [r1, #1]
10001554:	4683      	mov	fp, r0
10001556:	4648      	mov	r0, r9
10001558:	7048      	strb	r0, [r1, #1]
1000155a:	7058      	strb	r0, [r3, #1]
1000155c:	4641      	mov	r1, r8
1000155e:	0020      	movs	r0, r4
10001560:	f7ff fee2 	bl	10001328 <ph_merge_nodes>
10001564:	4659      	mov	r1, fp
10001566:	4680      	mov	r8, r0
10001568:	0020      	movs	r0, r4
1000156a:	f7ff ff43 	bl	100013f4 <ph_merge_two_pass>
1000156e:	4641      	mov	r1, r8
10001570:	0002      	movs	r2, r0
10001572:	0020      	movs	r0, r4
10001574:	f7ff fed8 	bl	10001328 <ph_merge_nodes>
10001578:	4680      	mov	r8, r0
1000157a:	e7cf      	b.n	1000151c <ph_remove_any_head+0x98>

1000157c <ph_remove_head_reserve>:
1000157c:	b5f0      	push	{r4, r5, r6, r7, lr}
1000157e:	464e      	mov	r6, r9
10001580:	4645      	mov	r5, r8
10001582:	46de      	mov	lr, fp
10001584:	4657      	mov	r7, sl
10001586:	b5e0      	push	{r5, r6, r7, lr}
10001588:	7b46      	ldrb	r6, [r0, #13]
1000158a:	0004      	movs	r4, r0
1000158c:	0075      	lsls	r5, r6, #1
1000158e:	6800      	ldr	r0, [r0, #0]
10001590:	19ad      	adds	r5, r5, r6
10001592:	3d03      	subs	r5, #3
10001594:	b083      	sub	sp, #12
10001596:	9101      	str	r1, [sp, #4]
10001598:	5d41      	ldrb	r1, [r0, r5]
1000159a:	1942      	adds	r2, r0, r5
1000159c:	2900      	cmp	r1, #0
1000159e:	d04e      	beq.n	1000163e <ph_remove_head_reserve+0xc2>
100015a0:	004b      	lsls	r3, r1, #1
100015a2:	185b      	adds	r3, r3, r1
100015a4:	3b03      	subs	r3, #3
100015a6:	18c3      	adds	r3, r0, r3
100015a8:	785f      	ldrb	r7, [r3, #1]
100015aa:	46bc      	mov	ip, r7
100015ac:	2f00      	cmp	r7, #0
100015ae:	d118      	bne.n	100015e2 <ph_remove_head_reserve+0x66>
100015b0:	9d01      	ldr	r5, [sp, #4]
100015b2:	2d00      	cmp	r5, #0
100015b4:	d140      	bne.n	10001638 <ph_remove_head_reserve+0xbc>
100015b6:	7be5      	ldrb	r5, [r4, #15]
100015b8:	2d00      	cmp	r5, #0
100015ba:	d004      	beq.n	100015c6 <ph_remove_head_reserve+0x4a>
100015bc:	006b      	lsls	r3, r5, #1
100015be:	195b      	adds	r3, r3, r5
100015c0:	18c3      	adds	r3, r0, r3
100015c2:	3b03      	subs	r3, #3
100015c4:	705e      	strb	r6, [r3, #1]
100015c6:	73e6      	strb	r6, [r4, #15]
100015c8:	2900      	cmp	r1, #0
100015ca:	d131      	bne.n	10001630 <ph_remove_head_reserve+0xb4>
100015cc:	2300      	movs	r3, #0
100015ce:	0030      	movs	r0, r6
100015d0:	7053      	strb	r3, [r2, #1]
100015d2:	7361      	strb	r1, [r4, #13]
100015d4:	b003      	add	sp, #12
100015d6:	bc3c      	pop	{r2, r3, r4, r5}
100015d8:	4690      	mov	r8, r2
100015da:	4699      	mov	r9, r3
100015dc:	46a2      	mov	sl, r4
100015de:	46ab      	mov	fp, r5
100015e0:	bdf0      	pop	{r4, r5, r6, r7, pc}
100015e2:	007a      	lsls	r2, r7, #1
100015e4:	4462      	add	r2, ip
100015e6:	3a03      	subs	r2, #3
100015e8:	1880      	adds	r0, r0, r2
100015ea:	7842      	ldrb	r2, [r0, #1]
100015ec:	4693      	mov	fp, r2
100015ee:	2200      	movs	r2, #0
100015f0:	7042      	strb	r2, [r0, #1]
100015f2:	4691      	mov	r9, r2
100015f4:	705a      	strb	r2, [r3, #1]
100015f6:	0020      	movs	r0, r4
100015f8:	003a      	movs	r2, r7
100015fa:	f7ff fe95 	bl	10001328 <ph_merge_nodes>
100015fe:	465b      	mov	r3, fp
10001600:	4680      	mov	r8, r0
10001602:	2b00      	cmp	r3, #0
10001604:	d007      	beq.n	10001616 <ph_remove_head_reserve+0x9a>
10001606:	005b      	lsls	r3, r3, #1
10001608:	6821      	ldr	r1, [r4, #0]
1000160a:	445b      	add	r3, fp
1000160c:	3b03      	subs	r3, #3
1000160e:	18cb      	adds	r3, r1, r3
10001610:	785a      	ldrb	r2, [r3, #1]
10001612:	2a00      	cmp	r2, #0
10001614:	d117      	bne.n	10001646 <ph_remove_head_reserve+0xca>
10001616:	465a      	mov	r2, fp
10001618:	4641      	mov	r1, r8
1000161a:	0020      	movs	r0, r4
1000161c:	f7ff fe84 	bl	10001328 <ph_merge_nodes>
10001620:	9b01      	ldr	r3, [sp, #4]
10001622:	0001      	movs	r1, r0
10001624:	6820      	ldr	r0, [r4, #0]
10001626:	1942      	adds	r2, r0, r5
10001628:	2b00      	cmp	r3, #0
1000162a:	d0c4      	beq.n	100015b6 <ph_remove_head_reserve+0x3a>
1000162c:	2900      	cmp	r1, #0
1000162e:	d0cd      	beq.n	100015cc <ph_remove_head_reserve+0x50>
10001630:	004b      	lsls	r3, r1, #1
10001632:	185b      	adds	r3, r3, r1
10001634:	3b03      	subs	r3, #3
10001636:	18c3      	adds	r3, r0, r3
10001638:	2000      	movs	r0, #0
1000163a:	7098      	strb	r0, [r3, #2]
1000163c:	e7c6      	b.n	100015cc <ph_remove_head_reserve+0x50>
1000163e:	9b01      	ldr	r3, [sp, #4]
10001640:	2b00      	cmp	r3, #0
10001642:	d1c3      	bne.n	100015cc <ph_remove_head_reserve+0x50>
10001644:	e7b7      	b.n	100015b6 <ph_remove_head_reserve+0x3a>
10001646:	0050      	lsls	r0, r2, #1
10001648:	1880      	adds	r0, r0, r2
1000164a:	3803      	subs	r0, #3
1000164c:	1809      	adds	r1, r1, r0
1000164e:	7848      	ldrb	r0, [r1, #1]
10001650:	4682      	mov	sl, r0
10001652:	4648      	mov	r0, r9
10001654:	7048      	strb	r0, [r1, #1]
10001656:	7058      	strb	r0, [r3, #1]
10001658:	4659      	mov	r1, fp
1000165a:	0020      	movs	r0, r4
1000165c:	f7ff fe64 	bl	10001328 <ph_merge_nodes>
10001660:	4653      	mov	r3, sl
10001662:	4683      	mov	fp, r0
10001664:	2b00      	cmp	r3, #0
10001666:	d007      	beq.n	10001678 <ph_remove_head_reserve+0xfc>
10001668:	005b      	lsls	r3, r3, #1
1000166a:	6821      	ldr	r1, [r4, #0]
1000166c:	4453      	add	r3, sl
1000166e:	3b03      	subs	r3, #3
10001670:	18cb      	adds	r3, r1, r3
10001672:	785a      	ldrb	r2, [r3, #1]
10001674:	2a00      	cmp	r2, #0
10001676:	d106      	bne.n	10001686 <ph_remove_head_reserve+0x10a>
10001678:	4659      	mov	r1, fp
1000167a:	4652      	mov	r2, sl
1000167c:	0020      	movs	r0, r4
1000167e:	f7ff fe53 	bl	10001328 <ph_merge_nodes>
10001682:	4683      	mov	fp, r0
10001684:	e7c7      	b.n	10001616 <ph_remove_head_reserve+0x9a>
10001686:	0050      	lsls	r0, r2, #1
10001688:	1880      	adds	r0, r0, r2
1000168a:	3803      	subs	r0, #3
1000168c:	1809      	adds	r1, r1, r0
1000168e:	4648      	mov	r0, r9
10001690:	784f      	ldrb	r7, [r1, #1]
10001692:	7048      	strb	r0, [r1, #1]
10001694:	7058      	strb	r0, [r3, #1]
10001696:	4651      	mov	r1, sl
10001698:	0020      	movs	r0, r4
1000169a:	f7ff fe45 	bl	10001328 <ph_merge_nodes>
1000169e:	0039      	movs	r1, r7
100016a0:	4681      	mov	r9, r0
100016a2:	0020      	movs	r0, r4
100016a4:	f7ff fea6 	bl	100013f4 <ph_merge_two_pass>
100016a8:	4649      	mov	r1, r9
100016aa:	0002      	movs	r2, r0
100016ac:	0020      	movs	r0, r4
100016ae:	f7ff fe3b 	bl	10001328 <ph_merge_nodes>
100016b2:	4682      	mov	sl, r0
100016b4:	e7e0      	b.n	10001678 <ph_remove_head_reserve+0xfc>
100016b6:	46c0      	nop			; (mov r8, r8)

100016b8 <ph_delete>:
100016b8:	b570      	push	{r4, r5, r6, lr}
100016ba:	0004      	movs	r4, r0
100016bc:	2900      	cmp	r1, #0
100016be:	d02c      	beq.n	1000171a <ph_delete+0x62>
100016c0:	7b43      	ldrb	r3, [r0, #13]
100016c2:	428b      	cmp	r3, r1
100016c4:	d02e      	beq.n	10001724 <ph_delete+0x6c>
100016c6:	6805      	ldr	r5, [r0, #0]
100016c8:	0048      	lsls	r0, r1, #1
100016ca:	1840      	adds	r0, r0, r1
100016cc:	3803      	subs	r0, #3
100016ce:	1828      	adds	r0, r5, r0
100016d0:	7882      	ldrb	r2, [r0, #2]
100016d2:	2a00      	cmp	r2, #0
100016d4:	d021      	beq.n	1000171a <ph_delete+0x62>
100016d6:	0053      	lsls	r3, r2, #1
100016d8:	189b      	adds	r3, r3, r2
100016da:	3b03      	subs	r3, #3
100016dc:	5cea      	ldrb	r2, [r5, r3]
100016de:	18ee      	adds	r6, r5, r3
100016e0:	428a      	cmp	r2, r1
100016e2:	d102      	bne.n	100016ea <ph_delete+0x32>
100016e4:	e01b      	b.n	1000171e <ph_delete+0x66>
100016e6:	2a00      	cmp	r2, #0
100016e8:	d008      	beq.n	100016fc <ph_delete+0x44>
100016ea:	0053      	lsls	r3, r2, #1
100016ec:	189b      	adds	r3, r3, r2
100016ee:	3b03      	subs	r3, #3
100016f0:	18eb      	adds	r3, r5, r3
100016f2:	785a      	ldrb	r2, [r3, #1]
100016f4:	428a      	cmp	r2, r1
100016f6:	d1f6      	bne.n	100016e6 <ph_delete+0x2e>
100016f8:	7842      	ldrb	r2, [r0, #1]
100016fa:	705a      	strb	r2, [r3, #1]
100016fc:	2300      	movs	r3, #0
100016fe:	2200      	movs	r2, #0
10001700:	7083      	strb	r3, [r0, #2]
10001702:	7043      	strb	r3, [r0, #1]
10001704:	0020      	movs	r0, r4
10001706:	f7ff febd 	bl	10001484 <ph_remove_any_head>
1000170a:	7b61      	ldrb	r1, [r4, #13]
1000170c:	0002      	movs	r2, r0
1000170e:	0020      	movs	r0, r4
10001710:	f7ff fe0a 	bl	10001328 <ph_merge_nodes>
10001714:	7360      	strb	r0, [r4, #13]
10001716:	2001      	movs	r0, #1
10001718:	e000      	b.n	1000171c <ph_delete+0x64>
1000171a:	2000      	movs	r0, #0
1000171c:	bd70      	pop	{r4, r5, r6, pc}
1000171e:	7843      	ldrb	r3, [r0, #1]
10001720:	7033      	strb	r3, [r6, #0]
10001722:	e7eb      	b.n	100016fc <ph_delete+0x44>
10001724:	2200      	movs	r2, #0
10001726:	0019      	movs	r1, r3
10001728:	f7ff feac 	bl	10001484 <ph_remove_any_head>
1000172c:	7360      	strb	r0, [r4, #13]
1000172e:	2001      	movs	r0, #1
10001730:	e7f4      	b.n	1000171c <ph_delete+0x64>
10001732:	46c0      	nop			; (mov r8, r8)

10001734 <runtime_init>:
10001734:	4b2b      	ldr	r3, [pc, #172]	; (100017e4 <runtime_init+0xb0>)
10001736:	4a2c      	ldr	r2, [pc, #176]	; (100017e8 <runtime_init+0xb4>)
10001738:	b570      	push	{r4, r5, r6, lr}
1000173a:	601a      	str	r2, [r3, #0]
1000173c:	4a2b      	ldr	r2, [pc, #172]	; (100017ec <runtime_init+0xb8>)
1000173e:	4b2c      	ldr	r3, [pc, #176]	; (100017f0 <runtime_init+0xbc>)
10001740:	492c      	ldr	r1, [pc, #176]	; (100017f4 <runtime_init+0xc0>)
10001742:	601a      	str	r2, [r3, #0]
10001744:	0010      	movs	r0, r2
10001746:	688b      	ldr	r3, [r1, #8]
10001748:	4398      	bics	r0, r3
1000174a:	d1fb      	bne.n	10001744 <runtime_init+0x10>
1000174c:	4c2a      	ldr	r4, [pc, #168]	; (100017f8 <runtime_init+0xc4>)
1000174e:	4b2b      	ldr	r3, [pc, #172]	; (100017fc <runtime_init+0xc8>)
10001750:	429c      	cmp	r4, r3
10001752:	d209      	bcs.n	10001768 <runtime_init+0x34>
10001754:	3b01      	subs	r3, #1
10001756:	1b1d      	subs	r5, r3, r4
10001758:	08ad      	lsrs	r5, r5, #2
1000175a:	3501      	adds	r5, #1
1000175c:	00ad      	lsls	r5, r5, #2
1000175e:	192d      	adds	r5, r5, r4
10001760:	cc08      	ldmia	r4!, {r3}
10001762:	4798      	blx	r3
10001764:	42ac      	cmp	r4, r5
10001766:	d1fb      	bne.n	10001760 <runtime_init+0x2c>
10001768:	f000 f90c 	bl	10001984 <clocks_init>
1000176c:	4a24      	ldr	r2, [pc, #144]	; (10001800 <runtime_init+0xcc>)
1000176e:	4b20      	ldr	r3, [pc, #128]	; (100017f0 <runtime_init+0xbc>)
10001770:	601a      	str	r2, [r3, #0]
10001772:	4a20      	ldr	r2, [pc, #128]	; (100017f4 <runtime_init+0xc0>)
10001774:	6893      	ldr	r3, [r2, #8]
10001776:	01db      	lsls	r3, r3, #7
10001778:	3380      	adds	r3, #128	; 0x80
1000177a:	d1fb      	bne.n	10001774 <runtime_init+0x40>
1000177c:	2240      	movs	r2, #64	; 0x40
1000177e:	4b21      	ldr	r3, [pc, #132]	; (10001804 <runtime_init+0xd0>)
10001780:	4c21      	ldr	r4, [pc, #132]	; (10001808 <runtime_init+0xd4>)
10001782:	679a      	str	r2, [r3, #120]	; 0x78
10001784:	675a      	str	r2, [r3, #116]	; 0x74
10001786:	671a      	str	r2, [r3, #112]	; 0x70
10001788:	66da      	str	r2, [r3, #108]	; 0x6c
1000178a:	4b20      	ldr	r3, [pc, #128]	; (1000180c <runtime_init+0xd8>)
1000178c:	429c      	cmp	r4, r3
1000178e:	d20b      	bcs.n	100017a8 <runtime_init+0x74>
10001790:	3b01      	subs	r3, #1
10001792:	1b1d      	subs	r5, r3, r4
10001794:	08ed      	lsrs	r5, r5, #3
10001796:	3501      	adds	r5, #1
10001798:	00ed      	lsls	r5, r5, #3
1000179a:	192d      	adds	r5, r5, r4
1000179c:	0020      	movs	r0, r4
1000179e:	3408      	adds	r4, #8
100017a0:	f7ff fdb4 	bl	1000130c <mutex_init>
100017a4:	42ac      	cmp	r4, r5
100017a6:	d1f9      	bne.n	1000179c <runtime_init+0x68>
100017a8:	4c19      	ldr	r4, [pc, #100]	; (10001810 <runtime_init+0xdc>)
100017aa:	4d1a      	ldr	r5, [pc, #104]	; (10001814 <runtime_init+0xe0>)
100017ac:	68a1      	ldr	r1, [r4, #8]
100017ae:	22c0      	movs	r2, #192	; 0xc0
100017b0:	0028      	movs	r0, r5
100017b2:	f001 f84d 	bl	10002850 <__wrap___aeabi_memcpy>
100017b6:	60a5      	str	r5, [r4, #8]
100017b8:	f7ff f914 	bl	100009e4 <spin_locks_reset>
100017bc:	f000 fc22 	bl	10002004 <irq_init_priorities>
100017c0:	f7ff fbca 	bl	10000f58 <alarm_pool_init_default>
100017c4:	4c14      	ldr	r4, [pc, #80]	; (10001818 <runtime_init+0xe4>)
100017c6:	4b15      	ldr	r3, [pc, #84]	; (1000181c <runtime_init+0xe8>)
100017c8:	429c      	cmp	r4, r3
100017ca:	d209      	bcs.n	100017e0 <runtime_init+0xac>
100017cc:	3b01      	subs	r3, #1
100017ce:	1b1d      	subs	r5, r3, r4
100017d0:	08ad      	lsrs	r5, r5, #2
100017d2:	3501      	adds	r5, #1
100017d4:	00ad      	lsls	r5, r5, #2
100017d6:	192d      	adds	r5, r5, r4
100017d8:	cc08      	ldmia	r4!, {r3}
100017da:	4798      	blx	r3
100017dc:	42a5      	cmp	r5, r4
100017de:	d1fb      	bne.n	100017d8 <runtime_init+0xa4>
100017e0:	bd70      	pop	{r4, r5, r6, pc}
100017e2:	46c0      	nop			; (mov r8, r8)
100017e4:	4000e000 	.word	0x4000e000
100017e8:	ffffcdbf 	.word	0xffffcdbf
100017ec:	003c7ffe 	.word	0x003c7ffe
100017f0:	4000f000 	.word	0x4000f000
100017f4:	4000c000 	.word	0x4000c000
100017f8:	20000a50 	.word	0x20000a50
100017fc:	20000a60 	.word	0x20000a60
10001800:	01ffffff 	.word	0x01ffffff
10001804:	4001f000 	.word	0x4001f000
10001808:	20000a48 	.word	0x20000a48
1000180c:	20000a50 	.word	0x20000a50
10001810:	e000ed00 	.word	0xe000ed00
10001814:	20000000 	.word	0x20000000
10001818:	20000a60 	.word	0x20000a60
1000181c:	20000a64 	.word	0x20000a64

10001820 <_sbrk>:
10001820:	4a09      	ldr	r2, [pc, #36]	; (10001848 <_sbrk+0x28>)
10001822:	0003      	movs	r3, r0
10001824:	6810      	ldr	r0, [r2, #0]
10001826:	2800      	cmp	r0, #0
10001828:	d005      	beq.n	10001836 <_sbrk+0x16>
1000182a:	4908      	ldr	r1, [pc, #32]	; (1000184c <_sbrk+0x2c>)
1000182c:	18c3      	adds	r3, r0, r3
1000182e:	428b      	cmp	r3, r1
10001830:	d207      	bcs.n	10001842 <_sbrk+0x22>
10001832:	6013      	str	r3, [r2, #0]
10001834:	4770      	bx	lr
10001836:	4806      	ldr	r0, [pc, #24]	; (10001850 <_sbrk+0x30>)
10001838:	4904      	ldr	r1, [pc, #16]	; (1000184c <_sbrk+0x2c>)
1000183a:	18c3      	adds	r3, r0, r3
1000183c:	6010      	str	r0, [r2, #0]
1000183e:	428b      	cmp	r3, r1
10001840:	d3f7      	bcc.n	10001832 <_sbrk+0x12>
10001842:	2001      	movs	r0, #1
10001844:	4240      	negs	r0, r0
10001846:	e7f5      	b.n	10001834 <_sbrk+0x14>
10001848:	20000af8 	.word	0x20000af8
1000184c:	20040000 	.word	0x20040000
10001850:	20000d40 	.word	0x20000d40

10001854 <exit>:
10001854:	be00      	bkpt	0x0000
10001856:	e7fd      	b.n	10001854 <exit>

10001858 <panic>:
10001858:	b40f      	push	{r0, r1, r2, r3}
1000185a:	b500      	push	{lr}
1000185c:	4808      	ldr	r0, [pc, #32]	; (10001880 <panic+0x28>)
1000185e:	b083      	sub	sp, #12
10001860:	f001 f8cc 	bl	100029fc <__wrap_puts>
10001864:	9b04      	ldr	r3, [sp, #16]
10001866:	2b00      	cmp	r3, #0
10001868:	d007      	beq.n	1000187a <panic+0x22>
1000186a:	a905      	add	r1, sp, #20
1000186c:	0018      	movs	r0, r3
1000186e:	9101      	str	r1, [sp, #4]
10001870:	f000 fbec 	bl	1000204c <weak_raw_vprintf>
10001874:	4803      	ldr	r0, [pc, #12]	; (10001884 <panic+0x2c>)
10001876:	f001 f8c1 	bl	100029fc <__wrap_puts>
1000187a:	be00      	bkpt	0x0000
1000187c:	e7fd      	b.n	1000187a <panic+0x22>
1000187e:	46c0      	nop			; (mov r8, r8)
10001880:	100e8cf0 	.word	0x100e8cf0
10001884:	100e8d00 	.word	0x100e8d00

10001888 <hard_assertion_failure>:
10001888:	b510      	push	{r4, lr}
1000188a:	4801      	ldr	r0, [pc, #4]	; (10001890 <hard_assertion_failure+0x8>)
1000188c:	f7ff ffe4 	bl	10001858 <panic>
10001890:	100e8d04 	.word	0x100e8d04

10001894 <clock_configure>:
10001894:	b5f0      	push	{r4, r5, r6, r7, lr}
10001896:	464f      	mov	r7, r9
10001898:	4646      	mov	r6, r8
1000189a:	46d6      	mov	lr, sl
1000189c:	b5c0      	push	{r6, r7, lr}
1000189e:	0017      	movs	r7, r2
100018a0:	9a08      	ldr	r2, [sp, #32]
100018a2:	0005      	movs	r5, r0
100018a4:	4688      	mov	r8, r1
100018a6:	429a      	cmp	r2, r3
100018a8:	d865      	bhi.n	10001976 <clock_configure+0xe2>
100018aa:	0e19      	lsrs	r1, r3, #24
100018ac:	0218      	lsls	r0, r3, #8
100018ae:	2300      	movs	r3, #0
100018b0:	f000 fc8c 	bl	100021cc <__wrap___aeabi_uldivmod>
100018b4:	4b31      	ldr	r3, [pc, #196]	; (1000197c <clock_configure+0xe8>)
100018b6:	006c      	lsls	r4, r5, #1
100018b8:	469c      	mov	ip, r3
100018ba:	1964      	adds	r4, r4, r5
100018bc:	00a4      	lsls	r4, r4, #2
100018be:	4464      	add	r4, ip
100018c0:	6863      	ldr	r3, [r4, #4]
100018c2:	4681      	mov	r9, r0
100018c4:	4298      	cmp	r0, r3
100018c6:	d900      	bls.n	100018ca <clock_configure+0x36>
100018c8:	6060      	str	r0, [r4, #4]
100018ca:	1f2b      	subs	r3, r5, #4
100018cc:	b2db      	uxtb	r3, r3
100018ce:	469a      	mov	sl, r3
100018d0:	2b01      	cmp	r3, #1
100018d2:	d92c      	bls.n	1000192e <clock_configure+0x9a>
100018d4:	23c0      	movs	r3, #192	; 0xc0
100018d6:	2280      	movs	r2, #128	; 0x80
100018d8:	4e29      	ldr	r6, [pc, #164]	; (10001980 <clock_configure+0xec>)
100018da:	00ad      	lsls	r5, r5, #2
100018dc:	019b      	lsls	r3, r3, #6
100018de:	5971      	ldr	r1, [r6, r5]
100018e0:	4323      	orrs	r3, r4
100018e2:	0112      	lsls	r2, r2, #4
100018e4:	601a      	str	r2, [r3, #0]
100018e6:	2900      	cmp	r1, #0
100018e8:	d005      	beq.n	100018f6 <clock_configure+0x62>
100018ea:	6970      	ldr	r0, [r6, #20]
100018ec:	f000 fc28 	bl	10002140 <__wrap___aeabi_uidiv>
100018f0:	3001      	adds	r0, #1
100018f2:	3801      	subs	r0, #1
100018f4:	d1fd      	bne.n	100018f2 <clock_configure+0x5e>
100018f6:	6822      	ldr	r2, [r4, #0]
100018f8:	017f      	lsls	r7, r7, #5
100018fa:	407a      	eors	r2, r7
100018fc:	27e0      	movs	r7, #224	; 0xe0
100018fe:	2380      	movs	r3, #128	; 0x80
10001900:	4017      	ands	r7, r2
10001902:	4652      	mov	r2, sl
10001904:	015b      	lsls	r3, r3, #5
10001906:	4323      	orrs	r3, r4
10001908:	601f      	str	r7, [r3, #0]
1000190a:	2a01      	cmp	r2, #1
1000190c:	d926      	bls.n	1000195c <clock_configure+0xc8>
1000190e:	2380      	movs	r3, #128	; 0x80
10001910:	2280      	movs	r2, #128	; 0x80
10001912:	019b      	lsls	r3, r3, #6
10001914:	4323      	orrs	r3, r4
10001916:	0112      	lsls	r2, r2, #4
10001918:	601a      	str	r2, [r3, #0]
1000191a:	464b      	mov	r3, r9
1000191c:	2001      	movs	r0, #1
1000191e:	6063      	str	r3, [r4, #4]
10001920:	9b08      	ldr	r3, [sp, #32]
10001922:	5173      	str	r3, [r6, r5]
10001924:	bc1c      	pop	{r2, r3, r4}
10001926:	4690      	mov	r8, r2
10001928:	4699      	mov	r9, r3
1000192a:	46a2      	mov	sl, r4
1000192c:	bdf0      	pop	{r4, r5, r6, r7, pc}
1000192e:	4643      	mov	r3, r8
10001930:	2b01      	cmp	r3, #1
10001932:	d1cf      	bne.n	100018d4 <clock_configure+0x40>
10001934:	23c0      	movs	r3, #192	; 0xc0
10001936:	2203      	movs	r2, #3
10001938:	019b      	lsls	r3, r3, #6
1000193a:	4323      	orrs	r3, r4
1000193c:	601a      	str	r2, [r3, #0]
1000193e:	3a02      	subs	r2, #2
10001940:	68a3      	ldr	r3, [r4, #8]
10001942:	421a      	tst	r2, r3
10001944:	d0fc      	beq.n	10001940 <clock_configure+0xac>
10001946:	23e0      	movs	r3, #224	; 0xe0
10001948:	6822      	ldr	r2, [r4, #0]
1000194a:	017f      	lsls	r7, r7, #5
1000194c:	4057      	eors	r7, r2
1000194e:	401f      	ands	r7, r3
10001950:	2380      	movs	r3, #128	; 0x80
10001952:	015b      	lsls	r3, r3, #5
10001954:	4323      	orrs	r3, r4
10001956:	4e0a      	ldr	r6, [pc, #40]	; (10001980 <clock_configure+0xec>)
10001958:	601f      	str	r7, [r3, #0]
1000195a:	00ad      	lsls	r5, r5, #2
1000195c:	4642      	mov	r2, r8
1000195e:	6821      	ldr	r1, [r4, #0]
10001960:	4051      	eors	r1, r2
10001962:	2203      	movs	r2, #3
10001964:	400a      	ands	r2, r1
10001966:	601a      	str	r2, [r3, #0]
10001968:	2201      	movs	r2, #1
1000196a:	4643      	mov	r3, r8
1000196c:	409a      	lsls	r2, r3
1000196e:	68a3      	ldr	r3, [r4, #8]
10001970:	421a      	tst	r2, r3
10001972:	d0fc      	beq.n	1000196e <clock_configure+0xda>
10001974:	e7cb      	b.n	1000190e <clock_configure+0x7a>
10001976:	2000      	movs	r0, #0
10001978:	e7d4      	b.n	10001924 <clock_configure+0x90>
1000197a:	46c0      	nop			; (mov r8, r8)
1000197c:	40008000 	.word	0x40008000
10001980:	20000ac4 	.word	0x20000ac4

10001984 <clocks_init>:
10001984:	b530      	push	{r4, r5, lr}
10001986:	200c      	movs	r0, #12
10001988:	b083      	sub	sp, #12
1000198a:	f000 f971 	bl	10001c70 <watchdog_start_tick>
1000198e:	f7ff f843 	bl	10000a18 <running_on_fpga>
10001992:	2800      	cmp	r0, #0
10001994:	d00e      	beq.n	100019b4 <clocks_init+0x30>
10001996:	4b9a      	ldr	r3, [pc, #616]	; (10001c00 <clocks_init+0x27c>)
10001998:	4a9a      	ldr	r2, [pc, #616]	; (10001c04 <clocks_init+0x280>)
1000199a:	601a      	str	r2, [r3, #0]
1000199c:	605a      	str	r2, [r3, #4]
1000199e:	609a      	str	r2, [r3, #8]
100019a0:	60da      	str	r2, [r3, #12]
100019a2:	611a      	str	r2, [r3, #16]
100019a4:	615a      	str	r2, [r3, #20]
100019a6:	619a      	str	r2, [r3, #24]
100019a8:	61da      	str	r2, [r3, #28]
100019aa:	621a      	str	r2, [r3, #32]
100019ac:	4a96      	ldr	r2, [pc, #600]	; (10001c08 <clocks_init+0x284>)
100019ae:	625a      	str	r2, [r3, #36]	; 0x24
100019b0:	b003      	add	sp, #12
100019b2:	bd30      	pop	{r4, r5, pc}
100019b4:	4c95      	ldr	r4, [pc, #596]	; (10001c0c <clocks_init+0x288>)
100019b6:	67a0      	str	r0, [r4, #120]	; 0x78
100019b8:	f000 f962 	bl	10001c80 <xosc_init>
100019bc:	2201      	movs	r2, #1
100019be:	4b94      	ldr	r3, [pc, #592]	; (10001c10 <clocks_init+0x28c>)
100019c0:	601a      	str	r2, [r3, #0]
100019c2:	6c63      	ldr	r3, [r4, #68]	; 0x44
100019c4:	2b01      	cmp	r3, #1
100019c6:	d1fc      	bne.n	100019c2 <clocks_init+0x3e>
100019c8:	2203      	movs	r2, #3
100019ca:	4b92      	ldr	r3, [pc, #584]	; (10001c14 <clocks_init+0x290>)
100019cc:	601a      	str	r2, [r3, #0]
100019ce:	4a8f      	ldr	r2, [pc, #572]	; (10001c0c <clocks_init+0x288>)
100019d0:	6b93      	ldr	r3, [r2, #56]	; 0x38
100019d2:	2b01      	cmp	r3, #1
100019d4:	d1fc      	bne.n	100019d0 <clocks_init+0x4c>
100019d6:	22c0      	movs	r2, #192	; 0xc0
100019d8:	4b8f      	ldr	r3, [pc, #572]	; (10001c18 <clocks_init+0x294>)
100019da:	0192      	lsls	r2, r2, #6
100019dc:	601a      	str	r2, [r3, #0]
100019de:	4b8f      	ldr	r3, [pc, #572]	; (10001c1c <clocks_init+0x298>)
100019e0:	498f      	ldr	r1, [pc, #572]	; (10001c20 <clocks_init+0x29c>)
100019e2:	601a      	str	r2, [r3, #0]
100019e4:	0010      	movs	r0, r2
100019e6:	688b      	ldr	r3, [r1, #8]
100019e8:	4398      	bics	r0, r3
100019ea:	1e03      	subs	r3, r0, #0
100019ec:	d1fa      	bne.n	100019e4 <clocks_init+0x60>
100019ee:	2402      	movs	r4, #2
100019f0:	2101      	movs	r1, #1
100019f2:	4a8c      	ldr	r2, [pc, #560]	; (10001c24 <clocks_init+0x2a0>)
100019f4:	488c      	ldr	r0, [pc, #560]	; (10001c28 <clocks_init+0x2a4>)
100019f6:	3306      	adds	r3, #6
100019f8:	9400      	str	r4, [sp, #0]
100019fa:	f000 f955 	bl	10001ca8 <pll_init>
100019fe:	2305      	movs	r3, #5
10001a00:	4a8a      	ldr	r2, [pc, #552]	; (10001c2c <clocks_init+0x2a8>)
10001a02:	2101      	movs	r1, #1
10001a04:	488a      	ldr	r0, [pc, #552]	; (10001c30 <clocks_init+0x2ac>)
10001a06:	9400      	str	r4, [sp, #0]
10001a08:	f000 f94e 	bl	10001ca8 <pll_init>
10001a0c:	4b89      	ldr	r3, [pc, #548]	; (10001c34 <clocks_init+0x2b0>)
10001a0e:	685a      	ldr	r2, [r3, #4]
10001a10:	2aff      	cmp	r2, #255	; 0xff
10001a12:	d802      	bhi.n	10001a1a <clocks_init+0x96>
10001a14:	2280      	movs	r2, #128	; 0x80
10001a16:	0052      	lsls	r2, r2, #1
10001a18:	605a      	str	r2, [r3, #4]
10001a1a:	2280      	movs	r2, #128	; 0x80
10001a1c:	4c78      	ldr	r4, [pc, #480]	; (10001c00 <clocks_init+0x27c>)
10001a1e:	4b7d      	ldr	r3, [pc, #500]	; (10001c14 <clocks_init+0x290>)
10001a20:	6921      	ldr	r1, [r4, #16]
10001a22:	0112      	lsls	r2, r2, #4
10001a24:	4d83      	ldr	r5, [pc, #524]	; (10001c34 <clocks_init+0x2b0>)
10001a26:	601a      	str	r2, [r3, #0]
10001a28:	2900      	cmp	r1, #0
10001a2a:	d005      	beq.n	10001a38 <clocks_init+0xb4>
10001a2c:	6960      	ldr	r0, [r4, #20]
10001a2e:	f000 fb87 	bl	10002140 <__wrap___aeabi_uidiv>
10001a32:	3001      	adds	r0, #1
10001a34:	3801      	subs	r0, #1
10001a36:	d1fd      	bne.n	10001a34 <clocks_init+0xb0>
10001a38:	21e0      	movs	r1, #224	; 0xe0
10001a3a:	4b7e      	ldr	r3, [pc, #504]	; (10001c34 <clocks_init+0x2b0>)
10001a3c:	2002      	movs	r0, #2
10001a3e:	681a      	ldr	r2, [r3, #0]
10001a40:	4011      	ands	r1, r2
10001a42:	2280      	movs	r2, #128	; 0x80
10001a44:	0152      	lsls	r2, r2, #5
10001a46:	432a      	orrs	r2, r5
10001a48:	6011      	str	r1, [r2, #0]
10001a4a:	6819      	ldr	r1, [r3, #0]
10001a4c:	4048      	eors	r0, r1
10001a4e:	2103      	movs	r1, #3
10001a50:	4001      	ands	r1, r0
10001a52:	6011      	str	r1, [r2, #0]
10001a54:	2104      	movs	r1, #4
10001a56:	689a      	ldr	r2, [r3, #8]
10001a58:	4211      	tst	r1, r2
10001a5a:	d0fc      	beq.n	10001a56 <clocks_init+0xd2>
10001a5c:	2280      	movs	r2, #128	; 0x80
10001a5e:	2180      	movs	r1, #128	; 0x80
10001a60:	0192      	lsls	r2, r2, #6
10001a62:	432a      	orrs	r2, r5
10001a64:	0109      	lsls	r1, r1, #4
10001a66:	6011      	str	r1, [r2, #0]
10001a68:	2280      	movs	r2, #128	; 0x80
10001a6a:	0052      	lsls	r2, r2, #1
10001a6c:	605a      	str	r2, [r3, #4]
10001a6e:	4b72      	ldr	r3, [pc, #456]	; (10001c38 <clocks_init+0x2b4>)
10001a70:	6123      	str	r3, [r4, #16]
10001a72:	4b72      	ldr	r3, [pc, #456]	; (10001c3c <clocks_init+0x2b8>)
10001a74:	6859      	ldr	r1, [r3, #4]
10001a76:	29ff      	cmp	r1, #255	; 0xff
10001a78:	d800      	bhi.n	10001a7c <clocks_init+0xf8>
10001a7a:	605a      	str	r2, [r3, #4]
10001a7c:	2203      	movs	r2, #3
10001a7e:	486f      	ldr	r0, [pc, #444]	; (10001c3c <clocks_init+0x2b8>)
10001a80:	4b63      	ldr	r3, [pc, #396]	; (10001c10 <clocks_init+0x28c>)
10001a82:	2101      	movs	r1, #1
10001a84:	601a      	str	r2, [r3, #0]
10001a86:	0002      	movs	r2, r0
10001a88:	6893      	ldr	r3, [r2, #8]
10001a8a:	4219      	tst	r1, r3
10001a8c:	d0fc      	beq.n	10001a88 <clocks_init+0x104>
10001a8e:	25e0      	movs	r5, #224	; 0xe0
10001a90:	6813      	ldr	r3, [r2, #0]
10001a92:	401d      	ands	r5, r3
10001a94:	2380      	movs	r3, #128	; 0x80
10001a96:	015b      	lsls	r3, r3, #5
10001a98:	4303      	orrs	r3, r0
10001a9a:	601d      	str	r5, [r3, #0]
10001a9c:	6812      	ldr	r2, [r2, #0]
10001a9e:	404a      	eors	r2, r1
10001aa0:	2103      	movs	r1, #3
10001aa2:	4011      	ands	r1, r2
10001aa4:	6019      	str	r1, [r3, #0]
10001aa6:	2102      	movs	r1, #2
10001aa8:	4a64      	ldr	r2, [pc, #400]	; (10001c3c <clocks_init+0x2b8>)
10001aaa:	6893      	ldr	r3, [r2, #8]
10001aac:	4219      	tst	r1, r3
10001aae:	d0fc      	beq.n	10001aaa <clocks_init+0x126>
10001ab0:	2380      	movs	r3, #128	; 0x80
10001ab2:	2180      	movs	r1, #128	; 0x80
10001ab4:	019b      	lsls	r3, r3, #6
10001ab6:	4303      	orrs	r3, r0
10001ab8:	0109      	lsls	r1, r1, #4
10001aba:	6019      	str	r1, [r3, #0]
10001abc:	2180      	movs	r1, #128	; 0x80
10001abe:	4b60      	ldr	r3, [pc, #384]	; (10001c40 <clocks_init+0x2bc>)
10001ac0:	0049      	lsls	r1, r1, #1
10001ac2:	6051      	str	r1, [r2, #4]
10001ac4:	6163      	str	r3, [r4, #20]
10001ac6:	4b5f      	ldr	r3, [pc, #380]	; (10001c44 <clocks_init+0x2c0>)
10001ac8:	685a      	ldr	r2, [r3, #4]
10001aca:	2aff      	cmp	r2, #255	; 0xff
10001acc:	d800      	bhi.n	10001ad0 <clocks_init+0x14c>
10001ace:	6059      	str	r1, [r3, #4]
10001ad0:	2280      	movs	r2, #128	; 0x80
10001ad2:	4b5d      	ldr	r3, [pc, #372]	; (10001c48 <clocks_init+0x2c4>)
10001ad4:	69e1      	ldr	r1, [r4, #28]
10001ad6:	0112      	lsls	r2, r2, #4
10001ad8:	4d5a      	ldr	r5, [pc, #360]	; (10001c44 <clocks_init+0x2c0>)
10001ada:	601a      	str	r2, [r3, #0]
10001adc:	2900      	cmp	r1, #0
10001ade:	d005      	beq.n	10001aec <clocks_init+0x168>
10001ae0:	6960      	ldr	r0, [r4, #20]
10001ae2:	f000 fb2d 	bl	10002140 <__wrap___aeabi_uidiv>
10001ae6:	3001      	adds	r0, #1
10001ae8:	3801      	subs	r0, #1
10001aea:	d1fd      	bne.n	10001ae8 <clocks_init+0x164>
10001aec:	22e0      	movs	r2, #224	; 0xe0
10001aee:	4955      	ldr	r1, [pc, #340]	; (10001c44 <clocks_init+0x2c0>)
10001af0:	680b      	ldr	r3, [r1, #0]
10001af2:	401a      	ands	r2, r3
10001af4:	2380      	movs	r3, #128	; 0x80
10001af6:	015b      	lsls	r3, r3, #5
10001af8:	432b      	orrs	r3, r5
10001afa:	601a      	str	r2, [r3, #0]
10001afc:	2380      	movs	r3, #128	; 0x80
10001afe:	2280      	movs	r2, #128	; 0x80
10001b00:	019b      	lsls	r3, r3, #6
10001b02:	432b      	orrs	r3, r5
10001b04:	0112      	lsls	r2, r2, #4
10001b06:	601a      	str	r2, [r3, #0]
10001b08:	2280      	movs	r2, #128	; 0x80
10001b0a:	4b3e      	ldr	r3, [pc, #248]	; (10001c04 <clocks_init+0x280>)
10001b0c:	0052      	lsls	r2, r2, #1
10001b0e:	604a      	str	r2, [r1, #4]
10001b10:	61e3      	str	r3, [r4, #28]
10001b12:	4b4e      	ldr	r3, [pc, #312]	; (10001c4c <clocks_init+0x2c8>)
10001b14:	6859      	ldr	r1, [r3, #4]
10001b16:	29ff      	cmp	r1, #255	; 0xff
10001b18:	d800      	bhi.n	10001b1c <clocks_init+0x198>
10001b1a:	605a      	str	r2, [r3, #4]
10001b1c:	2280      	movs	r2, #128	; 0x80
10001b1e:	4b4c      	ldr	r3, [pc, #304]	; (10001c50 <clocks_init+0x2cc>)
10001b20:	6a21      	ldr	r1, [r4, #32]
10001b22:	0112      	lsls	r2, r2, #4
10001b24:	4d49      	ldr	r5, [pc, #292]	; (10001c4c <clocks_init+0x2c8>)
10001b26:	601a      	str	r2, [r3, #0]
10001b28:	2900      	cmp	r1, #0
10001b2a:	d005      	beq.n	10001b38 <clocks_init+0x1b4>
10001b2c:	6960      	ldr	r0, [r4, #20]
10001b2e:	f000 fb07 	bl	10002140 <__wrap___aeabi_uidiv>
10001b32:	3001      	adds	r0, #1
10001b34:	3801      	subs	r0, #1
10001b36:	d1fd      	bne.n	10001b34 <clocks_init+0x1b0>
10001b38:	22e0      	movs	r2, #224	; 0xe0
10001b3a:	4944      	ldr	r1, [pc, #272]	; (10001c4c <clocks_init+0x2c8>)
10001b3c:	680b      	ldr	r3, [r1, #0]
10001b3e:	401a      	ands	r2, r3
10001b40:	2380      	movs	r3, #128	; 0x80
10001b42:	015b      	lsls	r3, r3, #5
10001b44:	432b      	orrs	r3, r5
10001b46:	601a      	str	r2, [r3, #0]
10001b48:	2380      	movs	r3, #128	; 0x80
10001b4a:	2280      	movs	r2, #128	; 0x80
10001b4c:	019b      	lsls	r3, r3, #6
10001b4e:	432b      	orrs	r3, r5
10001b50:	0112      	lsls	r2, r2, #4
10001b52:	601a      	str	r2, [r3, #0]
10001b54:	2380      	movs	r3, #128	; 0x80
10001b56:	2280      	movs	r2, #128	; 0x80
10001b58:	005b      	lsls	r3, r3, #1
10001b5a:	604b      	str	r3, [r1, #4]
10001b5c:	4b29      	ldr	r3, [pc, #164]	; (10001c04 <clocks_init+0x280>)
10001b5e:	02d2      	lsls	r2, r2, #11
10001b60:	6223      	str	r3, [r4, #32]
10001b62:	4b3c      	ldr	r3, [pc, #240]	; (10001c54 <clocks_init+0x2d0>)
10001b64:	6859      	ldr	r1, [r3, #4]
10001b66:	4291      	cmp	r1, r2
10001b68:	d200      	bcs.n	10001b6c <clocks_init+0x1e8>
10001b6a:	605a      	str	r2, [r3, #4]
10001b6c:	2280      	movs	r2, #128	; 0x80
10001b6e:	4b3a      	ldr	r3, [pc, #232]	; (10001c58 <clocks_init+0x2d4>)
10001b70:	6a61      	ldr	r1, [r4, #36]	; 0x24
10001b72:	0112      	lsls	r2, r2, #4
10001b74:	4d37      	ldr	r5, [pc, #220]	; (10001c54 <clocks_init+0x2d0>)
10001b76:	601a      	str	r2, [r3, #0]
10001b78:	2900      	cmp	r1, #0
10001b7a:	d005      	beq.n	10001b88 <clocks_init+0x204>
10001b7c:	6960      	ldr	r0, [r4, #20]
10001b7e:	f000 fadf 	bl	10002140 <__wrap___aeabi_uidiv>
10001b82:	3001      	adds	r0, #1
10001b84:	3801      	subs	r0, #1
10001b86:	d1fd      	bne.n	10001b84 <clocks_init+0x200>
10001b88:	22e0      	movs	r2, #224	; 0xe0
10001b8a:	4932      	ldr	r1, [pc, #200]	; (10001c54 <clocks_init+0x2d0>)
10001b8c:	680b      	ldr	r3, [r1, #0]
10001b8e:	401a      	ands	r2, r3
10001b90:	2380      	movs	r3, #128	; 0x80
10001b92:	015b      	lsls	r3, r3, #5
10001b94:	432b      	orrs	r3, r5
10001b96:	601a      	str	r2, [r3, #0]
10001b98:	2380      	movs	r3, #128	; 0x80
10001b9a:	2280      	movs	r2, #128	; 0x80
10001b9c:	019b      	lsls	r3, r3, #6
10001b9e:	432b      	orrs	r3, r5
10001ba0:	0112      	lsls	r2, r2, #4
10001ba2:	601a      	str	r2, [r3, #0]
10001ba4:	2380      	movs	r3, #128	; 0x80
10001ba6:	02db      	lsls	r3, r3, #11
10001ba8:	604b      	str	r3, [r1, #4]
10001baa:	4b17      	ldr	r3, [pc, #92]	; (10001c08 <clocks_init+0x284>)
10001bac:	6263      	str	r3, [r4, #36]	; 0x24
10001bae:	4b2b      	ldr	r3, [pc, #172]	; (10001c5c <clocks_init+0x2d8>)
10001bb0:	685a      	ldr	r2, [r3, #4]
10001bb2:	2aff      	cmp	r2, #255	; 0xff
10001bb4:	d802      	bhi.n	10001bbc <clocks_init+0x238>
10001bb6:	2280      	movs	r2, #128	; 0x80
10001bb8:	0052      	lsls	r2, r2, #1
10001bba:	605a      	str	r2, [r3, #4]
10001bbc:	2280      	movs	r2, #128	; 0x80
10001bbe:	4b28      	ldr	r3, [pc, #160]	; (10001c60 <clocks_init+0x2dc>)
10001bc0:	69a1      	ldr	r1, [r4, #24]
10001bc2:	0112      	lsls	r2, r2, #4
10001bc4:	4d25      	ldr	r5, [pc, #148]	; (10001c5c <clocks_init+0x2d8>)
10001bc6:	601a      	str	r2, [r3, #0]
10001bc8:	2900      	cmp	r1, #0
10001bca:	d005      	beq.n	10001bd8 <clocks_init+0x254>
10001bcc:	6960      	ldr	r0, [r4, #20]
10001bce:	f000 fab7 	bl	10002140 <__wrap___aeabi_uidiv>
10001bd2:	3001      	adds	r0, #1
10001bd4:	3801      	subs	r0, #1
10001bd6:	d1fd      	bne.n	10001bd4 <clocks_init+0x250>
10001bd8:	22e0      	movs	r2, #224	; 0xe0
10001bda:	4920      	ldr	r1, [pc, #128]	; (10001c5c <clocks_init+0x2d8>)
10001bdc:	680b      	ldr	r3, [r1, #0]
10001bde:	401a      	ands	r2, r3
10001be0:	2380      	movs	r3, #128	; 0x80
10001be2:	015b      	lsls	r3, r3, #5
10001be4:	432b      	orrs	r3, r5
10001be6:	601a      	str	r2, [r3, #0]
10001be8:	2380      	movs	r3, #128	; 0x80
10001bea:	2280      	movs	r2, #128	; 0x80
10001bec:	019b      	lsls	r3, r3, #6
10001bee:	432b      	orrs	r3, r5
10001bf0:	0112      	lsls	r2, r2, #4
10001bf2:	601a      	str	r2, [r3, #0]
10001bf4:	2380      	movs	r3, #128	; 0x80
10001bf6:	005b      	lsls	r3, r3, #1
10001bf8:	604b      	str	r3, [r1, #4]
10001bfa:	4b11      	ldr	r3, [pc, #68]	; (10001c40 <clocks_init+0x2bc>)
10001bfc:	61a3      	str	r3, [r4, #24]
10001bfe:	e6d7      	b.n	100019b0 <clocks_init+0x2c>
10001c00:	20000ac4 	.word	0x20000ac4
10001c04:	02dc6c00 	.word	0x02dc6c00
10001c08:	0000b71b 	.word	0x0000b71b
10001c0c:	40008000 	.word	0x40008000
10001c10:	4000b03c 	.word	0x4000b03c
10001c14:	4000b030 	.word	0x4000b030
10001c18:	4000e000 	.word	0x4000e000
10001c1c:	4000f000 	.word	0x4000f000
10001c20:	4000c000 	.word	0x4000c000
10001c24:	59682f00 	.word	0x59682f00
10001c28:	40028000 	.word	0x40028000
10001c2c:	1c9c3800 	.word	0x1c9c3800
10001c30:	4002c000 	.word	0x4002c000
10001c34:	40008030 	.word	0x40008030
10001c38:	00b71b00 	.word	0x00b71b00
10001c3c:	4000803c 	.word	0x4000803c
10001c40:	07735940 	.word	0x07735940
10001c44:	40008054 	.word	0x40008054
10001c48:	4000b054 	.word	0x4000b054
10001c4c:	40008060 	.word	0x40008060
10001c50:	4000b060 	.word	0x4000b060
10001c54:	4000806c 	.word	0x4000806c
10001c58:	4000b06c 	.word	0x4000b06c
10001c5c:	40008048 	.word	0x40008048
10001c60:	4000b048 	.word	0x4000b048

10001c64 <clock_get_hz>:
10001c64:	4b01      	ldr	r3, [pc, #4]	; (10001c6c <clock_get_hz+0x8>)
10001c66:	0080      	lsls	r0, r0, #2
10001c68:	58c0      	ldr	r0, [r0, r3]
10001c6a:	4770      	bx	lr
10001c6c:	20000ac4 	.word	0x20000ac4

10001c70 <watchdog_start_tick>:
10001c70:	2380      	movs	r3, #128	; 0x80
10001c72:	4a02      	ldr	r2, [pc, #8]	; (10001c7c <watchdog_start_tick+0xc>)
10001c74:	009b      	lsls	r3, r3, #2
10001c76:	4303      	orrs	r3, r0
10001c78:	62d3      	str	r3, [r2, #44]	; 0x2c
10001c7a:	4770      	bx	lr
10001c7c:	40058000 	.word	0x40058000

10001c80 <xosc_init>:
10001c80:	23aa      	movs	r3, #170	; 0xaa
10001c82:	4a06      	ldr	r2, [pc, #24]	; (10001c9c <xosc_init+0x1c>)
10001c84:	011b      	lsls	r3, r3, #4
10001c86:	6013      	str	r3, [r2, #0]
10001c88:	232f      	movs	r3, #47	; 0x2f
10001c8a:	4905      	ldr	r1, [pc, #20]	; (10001ca0 <xosc_init+0x20>)
10001c8c:	60d3      	str	r3, [r2, #12]
10001c8e:	4b05      	ldr	r3, [pc, #20]	; (10001ca4 <xosc_init+0x24>)
10001c90:	6019      	str	r1, [r3, #0]
10001c92:	6853      	ldr	r3, [r2, #4]
10001c94:	2b00      	cmp	r3, #0
10001c96:	dafc      	bge.n	10001c92 <xosc_init+0x12>
10001c98:	4770      	bx	lr
10001c9a:	46c0      	nop			; (mov r8, r8)
10001c9c:	40024000 	.word	0x40024000
10001ca0:	00fab000 	.word	0x00fab000
10001ca4:	40026000 	.word	0x40026000

10001ca8 <pll_init>:
10001ca8:	b5f8      	push	{r3, r4, r5, r6, r7, lr}
10001caa:	001d      	movs	r5, r3
10001cac:	ab06      	add	r3, sp, #24
10001cae:	781e      	ldrb	r6, [r3, #0]
10001cb0:	2301      	movs	r3, #1
10001cb2:	425b      	negs	r3, r3
10001cb4:	6043      	str	r3, [r0, #4]
10001cb6:	2300      	movs	r3, #0
10001cb8:	0004      	movs	r4, r0
10001cba:	6083      	str	r3, [r0, #8]
10001cbc:	6001      	str	r1, [r0, #0]
10001cbe:	200c      	movs	r0, #12
10001cc0:	0017      	movs	r7, r2
10001cc2:	f000 fa3d 	bl	10002140 <__wrap___aeabi_uidiv>
10001cc6:	0141      	lsls	r1, r0, #5
10001cc8:	1a09      	subs	r1, r1, r0
10001cca:	018b      	lsls	r3, r1, #6
10001ccc:	1a59      	subs	r1, r3, r1
10001cce:	00c9      	lsls	r1, r1, #3
10001cd0:	1809      	adds	r1, r1, r0
10001cd2:	0189      	lsls	r1, r1, #6
10001cd4:	0038      	movs	r0, r7
10001cd6:	f000 fa33 	bl	10002140 <__wrap___aeabi_uidiv>
10001cda:	21c0      	movs	r1, #192	; 0xc0
10001cdc:	1d23      	adds	r3, r4, #4
10001cde:	0189      	lsls	r1, r1, #6
10001ce0:	4319      	orrs	r1, r3
10001ce2:	2321      	movs	r3, #33	; 0x21
10001ce4:	60a0      	str	r0, [r4, #8]
10001ce6:	600b      	str	r3, [r1, #0]
10001ce8:	6822      	ldr	r2, [r4, #0]
10001cea:	2a00      	cmp	r2, #0
10001cec:	dafc      	bge.n	10001ce8 <pll_init+0x40>
10001cee:	2308      	movs	r3, #8
10001cf0:	042d      	lsls	r5, r5, #16
10001cf2:	0336      	lsls	r6, r6, #12
10001cf4:	432e      	orrs	r6, r5
10001cf6:	60e6      	str	r6, [r4, #12]
10001cf8:	600b      	str	r3, [r1, #0]
10001cfa:	bdf8      	pop	{r3, r4, r5, r6, r7, pc}

10001cfc <irq_set_enabled>:
10001cfc:	2301      	movs	r3, #1
10001cfe:	4083      	lsls	r3, r0
10001d00:	2900      	cmp	r1, #0
10001d02:	d004      	beq.n	10001d0e <irq_set_enabled+0x12>
10001d04:	4a03      	ldr	r2, [pc, #12]	; (10001d14 <irq_set_enabled+0x18>)
10001d06:	6013      	str	r3, [r2, #0]
10001d08:	4a03      	ldr	r2, [pc, #12]	; (10001d18 <irq_set_enabled+0x1c>)
10001d0a:	6013      	str	r3, [r2, #0]
10001d0c:	4770      	bx	lr
10001d0e:	4a03      	ldr	r2, [pc, #12]	; (10001d1c <irq_set_enabled+0x20>)
10001d10:	6013      	str	r3, [r2, #0]
10001d12:	e7fb      	b.n	10001d0c <irq_set_enabled+0x10>
10001d14:	e000e280 	.word	0xe000e280
10001d18:	e000e100 	.word	0xe000e100
10001d1c:	e000e180 	.word	0xe000e180

10001d20 <irq_get_vtable_handler>:
10001d20:	4b02      	ldr	r3, [pc, #8]	; (10001d2c <irq_get_vtable_handler+0xc>)
10001d22:	3010      	adds	r0, #16
10001d24:	689b      	ldr	r3, [r3, #8]
10001d26:	0080      	lsls	r0, r0, #2
10001d28:	58c0      	ldr	r0, [r0, r3]
10001d2a:	4770      	bx	lr
10001d2c:	e000ed00 	.word	0xe000ed00

10001d30 <irq_set_exclusive_handler>:
10001d30:	b570      	push	{r4, r5, r6, lr}
10001d32:	000d      	movs	r5, r1
10001d34:	f3ef 8610 	mrs	r6, PRIMASK
10001d38:	b672      	cpsid	i
10001d3a:	4a0f      	ldr	r2, [pc, #60]	; (10001d78 <irq_set_exclusive_handler+0x48>)
10001d3c:	6813      	ldr	r3, [r2, #0]
10001d3e:	2b00      	cmp	r3, #0
10001d40:	d0fc      	beq.n	10001d3c <irq_set_exclusive_handler+0xc>
10001d42:	f3bf 8f5f 	dmb	sy
10001d46:	4b0d      	ldr	r3, [pc, #52]	; (10001d7c <irq_set_exclusive_handler+0x4c>)
10001d48:	3010      	adds	r0, #16
10001d4a:	689b      	ldr	r3, [r3, #8]
10001d4c:	0084      	lsls	r4, r0, #2
10001d4e:	591b      	ldr	r3, [r3, r4]
10001d50:	4a0b      	ldr	r2, [pc, #44]	; (10001d80 <irq_set_exclusive_handler+0x50>)
10001d52:	4293      	cmp	r3, r2
10001d54:	d003      	beq.n	10001d5e <irq_set_exclusive_handler+0x2e>
10001d56:	429d      	cmp	r5, r3
10001d58:	d001      	beq.n	10001d5e <irq_set_exclusive_handler+0x2e>
10001d5a:	f7ff fd95 	bl	10001888 <hard_assertion_failure>
10001d5e:	4b07      	ldr	r3, [pc, #28]	; (10001d7c <irq_set_exclusive_handler+0x4c>)
10001d60:	689b      	ldr	r3, [r3, #8]
10001d62:	511d      	str	r5, [r3, r4]
10001d64:	f3bf 8f5f 	dmb	sy
10001d68:	f3bf 8f5f 	dmb	sy
10001d6c:	2200      	movs	r2, #0
10001d6e:	4b02      	ldr	r3, [pc, #8]	; (10001d78 <irq_set_exclusive_handler+0x48>)
10001d70:	601a      	str	r2, [r3, #0]
10001d72:	f386 8810 	msr	PRIMASK, r6
10001d76:	bd70      	pop	{r4, r5, r6, pc}
10001d78:	d0000124 	.word	0xd0000124
10001d7c:	e000ed00 	.word	0xe000ed00
10001d80:	100001cd 	.word	0x100001cd

10001d84 <irq_remove_handler>:
10001d84:	b5f0      	push	{r4, r5, r6, r7, lr}
10001d86:	46de      	mov	lr, fp
10001d88:	4657      	mov	r7, sl
10001d8a:	464e      	mov	r6, r9
10001d8c:	4645      	mov	r5, r8
10001d8e:	b5e0      	push	{r5, r6, r7, lr}
10001d90:	000c      	movs	r4, r1
10001d92:	b083      	sub	sp, #12
10001d94:	f3ef 8a10 	mrs	sl, PRIMASK
10001d98:	b672      	cpsid	i
10001d9a:	4a5f      	ldr	r2, [pc, #380]	; (10001f18 <irq_remove_handler+0x194>)
10001d9c:	6813      	ldr	r3, [r2, #0]
10001d9e:	2b00      	cmp	r3, #0
10001da0:	d0fc      	beq.n	10001d9c <irq_remove_handler+0x18>
10001da2:	f3bf 8f5f 	dmb	sy
10001da6:	2210      	movs	r2, #16
10001da8:	4691      	mov	r9, r2
10001daa:	4481      	add	r9, r0
10001dac:	464a      	mov	r2, r9
10001dae:	4b5b      	ldr	r3, [pc, #364]	; (10001f1c <irq_remove_handler+0x198>)
10001db0:	0096      	lsls	r6, r2, #2
10001db2:	689b      	ldr	r3, [r3, #8]
10001db4:	599d      	ldr	r5, [r3, r6]
10001db6:	4b5a      	ldr	r3, [pc, #360]	; (10001f20 <irq_remove_handler+0x19c>)
10001db8:	4698      	mov	r8, r3
10001dba:	429d      	cmp	r5, r3
10001dbc:	d005      	beq.n	10001dca <irq_remove_handler+0x46>
10001dbe:	42a5      	cmp	r5, r4
10001dc0:	d016      	beq.n	10001df0 <irq_remove_handler+0x6c>
10001dc2:	4f58      	ldr	r7, [pc, #352]	; (10001f24 <irq_remove_handler+0x1a0>)
10001dc4:	1beb      	subs	r3, r5, r7
10001dc6:	2b2f      	cmp	r3, #47	; 0x2f
10001dc8:	d914      	bls.n	10001df4 <irq_remove_handler+0x70>
10001dca:	4b54      	ldr	r3, [pc, #336]	; (10001f1c <irq_remove_handler+0x198>)
10001dcc:	689b      	ldr	r3, [r3, #8]
10001dce:	519d      	str	r5, [r3, r6]
10001dd0:	f3bf 8f5f 	dmb	sy
10001dd4:	f3bf 8f5f 	dmb	sy
10001dd8:	2200      	movs	r2, #0
10001dda:	4b4f      	ldr	r3, [pc, #316]	; (10001f18 <irq_remove_handler+0x194>)
10001ddc:	601a      	str	r2, [r3, #0]
10001dde:	f38a 8810 	msr	PRIMASK, sl
10001de2:	b003      	add	sp, #12
10001de4:	bc3c      	pop	{r2, r3, r4, r5}
10001de6:	4690      	mov	r8, r2
10001de8:	4699      	mov	r9, r3
10001dea:	46a2      	mov	sl, r4
10001dec:	46ab      	mov	fp, r5
10001dee:	bdf0      	pop	{r4, r5, r6, r7, pc}
10001df0:	001d      	movs	r5, r3
10001df2:	e7ea      	b.n	10001dca <irq_remove_handler+0x46>
10001df4:	2301      	movs	r3, #1
10001df6:	4083      	lsls	r3, r0
10001df8:	469b      	mov	fp, r3
10001dfa:	465a      	mov	r2, fp
10001dfc:	4b4a      	ldr	r3, [pc, #296]	; (10001f28 <irq_remove_handler+0x1a4>)
10001dfe:	681b      	ldr	r3, [r3, #0]
10001e00:	401a      	ands	r2, r3
10001e02:	9200      	str	r2, [sp, #0]
10001e04:	465a      	mov	r2, fp
10001e06:	4b49      	ldr	r3, [pc, #292]	; (10001f2c <irq_remove_handler+0x1a8>)
10001e08:	601a      	str	r2, [r3, #0]
10001e0a:	f3bf 8f5f 	dmb	sy
10001e0e:	f7fe fa2a 	bl	10000266 <__get_current_exception>
10001e12:	9001      	str	r0, [sp, #4]
10001e14:	2800      	cmp	r0, #0
10001e16:	d003      	beq.n	10001e20 <irq_remove_handler+0x9c>
10001e18:	4581      	cmp	r9, r0
10001e1a:	d001      	beq.n	10001e20 <irq_remove_handler+0x9c>
10001e1c:	f7ff fd34 	bl	10001888 <hard_assertion_failure>
10001e20:	2301      	movs	r3, #1
10001e22:	0029      	movs	r1, r5
10001e24:	4399      	bics	r1, r3
10001e26:	688b      	ldr	r3, [r1, #8]
10001e28:	42a3      	cmp	r3, r4
10001e2a:	d069      	beq.n	10001f00 <irq_remove_handler+0x17c>
10001e2c:	000a      	movs	r2, r1
10001e2e:	e007      	b.n	10001e40 <irq_remove_handler+0xbc>
10001e30:	0043      	lsls	r3, r0, #1
10001e32:	181b      	adds	r3, r3, r0
10001e34:	009b      	lsls	r3, r3, #2
10001e36:	18fb      	adds	r3, r7, r3
10001e38:	6898      	ldr	r0, [r3, #8]
10001e3a:	42a0      	cmp	r0, r4
10001e3c:	d011      	beq.n	10001e62 <irq_remove_handler+0xde>
10001e3e:	001a      	movs	r2, r3
10001e40:	2006      	movs	r0, #6
10001e42:	5610      	ldrsb	r0, [r2, r0]
10001e44:	2800      	cmp	r0, #0
10001e46:	daf3      	bge.n	10001e30 <irq_remove_handler+0xac>
10001e48:	9b00      	ldr	r3, [sp, #0]
10001e4a:	2b00      	cmp	r3, #0
10001e4c:	d005      	beq.n	10001e5a <irq_remove_handler+0xd6>
10001e4e:	465a      	mov	r2, fp
10001e50:	4b37      	ldr	r3, [pc, #220]	; (10001f30 <irq_remove_handler+0x1ac>)
10001e52:	601a      	str	r2, [r3, #0]
10001e54:	4b34      	ldr	r3, [pc, #208]	; (10001f28 <irq_remove_handler+0x1a4>)
10001e56:	601a      	str	r2, [r3, #0]
10001e58:	e7b7      	b.n	10001dca <irq_remove_handler+0x46>
10001e5a:	465a      	mov	r2, fp
10001e5c:	4b33      	ldr	r3, [pc, #204]	; (10001f2c <irq_remove_handler+0x1a8>)
10001e5e:	601a      	str	r2, [r3, #0]
10001e60:	e7b3      	b.n	10001dca <irq_remove_handler+0x46>
10001e62:	2006      	movs	r0, #6
10001e64:	5618      	ldrsb	r0, [r3, r0]
10001e66:	2800      	cmp	r0, #0
10001e68:	db22      	blt.n	10001eb0 <irq_remove_handler+0x12c>
10001e6a:	0042      	lsls	r2, r0, #1
10001e6c:	1811      	adds	r1, r2, r0
10001e6e:	0089      	lsls	r1, r1, #2
10001e70:	187c      	adds	r4, r7, r1
10001e72:	4688      	mov	r8, r1
10001e74:	68a1      	ldr	r1, [r4, #8]
10001e76:	6099      	str	r1, [r3, #8]
10001e78:	79e1      	ldrb	r1, [r4, #7]
10001e7a:	71d9      	strb	r1, [r3, #7]
10001e7c:	2106      	movs	r1, #6
10001e7e:	5661      	ldrsb	r1, [r4, r1]
10001e80:	7199      	strb	r1, [r3, #6]
10001e82:	79a1      	ldrb	r1, [r4, #6]
10001e84:	297f      	cmp	r1, #127	; 0x7f
10001e86:	d82b      	bhi.n	10001ee0 <irq_remove_handler+0x15c>
10001e88:	88a4      	ldrh	r4, [r4, #4]
10001e8a:	1af9      	subs	r1, r7, r3
10001e8c:	0564      	lsls	r4, r4, #21
10001e8e:	1524      	asrs	r4, r4, #20
10001e90:	4444      	add	r4, r8
10001e92:	1909      	adds	r1, r1, r4
10001e94:	24e0      	movs	r4, #224	; 0xe0
10001e96:	0509      	lsls	r1, r1, #20
10001e98:	0d49      	lsrs	r1, r1, #21
10001e9a:	0224      	lsls	r4, r4, #8
10001e9c:	4321      	orrs	r1, r4
10001e9e:	8099      	strh	r1, [r3, #4]
10001ea0:	1812      	adds	r2, r2, r0
10001ea2:	4b24      	ldr	r3, [pc, #144]	; (10001f34 <irq_remove_handler+0x1b0>)
10001ea4:	0092      	lsls	r2, r2, #2
10001ea6:	18bf      	adds	r7, r7, r2
10001ea8:	781a      	ldrb	r2, [r3, #0]
10001eaa:	7018      	strb	r0, [r3, #0]
10001eac:	71ba      	strb	r2, [r7, #6]
10001eae:	e7cb      	b.n	10001e48 <irq_remove_handler+0xc4>
10001eb0:	9801      	ldr	r0, [sp, #4]
10001eb2:	2800      	cmp	r0, #0
10001eb4:	d117      	bne.n	10001ee6 <irq_remove_handler+0x162>
10001eb6:	30ff      	adds	r0, #255	; 0xff
10001eb8:	7190      	strb	r0, [r2, #6]
10001eba:	481f      	ldr	r0, [pc, #124]	; (10001f38 <irq_remove_handler+0x1b4>)
10001ebc:	8090      	strh	r0, [r2, #4]
10001ebe:	4a1d      	ldr	r2, [pc, #116]	; (10001f34 <irq_remove_handler+0x1b0>)
10001ec0:	1bcf      	subs	r7, r1, r7
10001ec2:	7810      	ldrb	r0, [r2, #0]
10001ec4:	10bf      	asrs	r7, r7, #2
10001ec6:	7198      	strb	r0, [r3, #6]
10001ec8:	00bb      	lsls	r3, r7, #2
10001eca:	19db      	adds	r3, r3, r7
10001ecc:	0119      	lsls	r1, r3, #4
10001ece:	185b      	adds	r3, r3, r1
10001ed0:	0219      	lsls	r1, r3, #8
10001ed2:	185b      	adds	r3, r3, r1
10001ed4:	0419      	lsls	r1, r3, #16
10001ed6:	185b      	adds	r3, r3, r1
10001ed8:	005b      	lsls	r3, r3, #1
10001eda:	19db      	adds	r3, r3, r7
10001edc:	7013      	strb	r3, [r2, #0]
10001ede:	e7b3      	b.n	10001e48 <irq_remove_handler+0xc4>
10001ee0:	21bd      	movs	r1, #189	; 0xbd
10001ee2:	0209      	lsls	r1, r1, #8
10001ee4:	e7db      	b.n	10001e9e <irq_remove_handler+0x11a>
10001ee6:	4a15      	ldr	r2, [pc, #84]	; (10001f3c <irq_remove_handler+0x1b8>)
10001ee8:	4915      	ldr	r1, [pc, #84]	; (10001f40 <irq_remove_handler+0x1bc>)
10001eea:	1ad2      	subs	r2, r2, r3
10001eec:	3a08      	subs	r2, #8
10001eee:	0250      	lsls	r0, r2, #9
10001ef0:	0d40      	lsrs	r0, r0, #21
10001ef2:	4301      	orrs	r1, r0
10001ef4:	8099      	strh	r1, [r3, #4]
10001ef6:	4913      	ldr	r1, [pc, #76]	; (10001f44 <irq_remove_handler+0x1c0>)
10001ef8:	0852      	lsrs	r2, r2, #1
10001efa:	430a      	orrs	r2, r1
10001efc:	80da      	strh	r2, [r3, #6]
10001efe:	e7a3      	b.n	10001e48 <irq_remove_handler+0xc4>
10001f00:	2006      	movs	r0, #6
10001f02:	5608      	ldrsb	r0, [r1, r0]
10001f04:	000b      	movs	r3, r1
10001f06:	2800      	cmp	r0, #0
10001f08:	daaf      	bge.n	10001e6a <irq_remove_handler+0xe6>
10001f0a:	9a01      	ldr	r2, [sp, #4]
10001f0c:	2a00      	cmp	r2, #0
10001f0e:	d1ea      	bne.n	10001ee6 <irq_remove_handler+0x162>
10001f10:	000b      	movs	r3, r1
10001f12:	4645      	mov	r5, r8
10001f14:	e7d3      	b.n	10001ebe <irq_remove_handler+0x13a>
10001f16:	46c0      	nop			; (mov r8, r8)
10001f18:	d0000124 	.word	0xd0000124
10001f1c:	e000ed00 	.word	0xe000ed00
10001f20:	100001cd 	.word	0x100001cd
10001f24:	20000184 	.word	0x20000184
10001f28:	e000e100 	.word	0xe000e100
10001f2c:	e000e180 	.word	0xe000e180
10001f30:	e000e280 	.word	0xe000e280
10001f34:	20000b26 	.word	0x20000b26
10001f38:	ffffbd00 	.word	0xffffbd00
10001f3c:	200001be 	.word	0x200001be
10001f40:	fffff000 	.word	0xfffff000
10001f44:	fffff800 	.word	0xfffff800

10001f48 <irq_add_tail_to_free_list>:
10001f48:	b5f8      	push	{r3, r4, r5, r6, r7, lr}
10001f4a:	2501      	movs	r5, #1
10001f4c:	0004      	movs	r4, r0
10001f4e:	4305      	orrs	r5, r0
10001f50:	f7fe f989 	bl	10000266 <__get_current_exception>
10001f54:	f3ef 8610 	mrs	r6, PRIMASK
10001f58:	b672      	cpsid	i
10001f5a:	4a24      	ldr	r2, [pc, #144]	; (10001fec <irq_add_tail_to_free_list+0xa4>)
10001f5c:	6813      	ldr	r3, [r2, #0]
10001f5e:	2b00      	cmp	r3, #0
10001f60:	d0fc      	beq.n	10001f5c <irq_add_tail_to_free_list+0x14>
10001f62:	f3bf 8f5f 	dmb	sy
10001f66:	4f22      	ldr	r7, [pc, #136]	; (10001ff0 <irq_add_tail_to_free_list+0xa8>)
10001f68:	0080      	lsls	r0, r0, #2
10001f6a:	1be1      	subs	r1, r4, r7
10001f6c:	1089      	asrs	r1, r1, #2
10001f6e:	008a      	lsls	r2, r1, #2
10001f70:	1852      	adds	r2, r2, r1
10001f72:	0113      	lsls	r3, r2, #4
10001f74:	18d2      	adds	r2, r2, r3
10001f76:	0213      	lsls	r3, r2, #8
10001f78:	18d2      	adds	r2, r2, r3
10001f7a:	0413      	lsls	r3, r2, #16
10001f7c:	18d3      	adds	r3, r2, r3
10001f7e:	4a1d      	ldr	r2, [pc, #116]	; (10001ff4 <irq_add_tail_to_free_list+0xac>)
10001f80:	005b      	lsls	r3, r3, #1
10001f82:	185b      	adds	r3, r3, r1
10001f84:	6891      	ldr	r1, [r2, #8]
10001f86:	5809      	ldr	r1, [r1, r0]
10001f88:	42a9      	cmp	r1, r5
10001f8a:	d01c      	beq.n	10001fc6 <irq_add_tail_to_free_list+0x7e>
10001f8c:	2206      	movs	r2, #6
10001f8e:	56ba      	ldrsb	r2, [r7, r2]
10001f90:	4293      	cmp	r3, r2
10001f92:	d01c      	beq.n	10001fce <irq_add_tail_to_free_list+0x86>
10001f94:	2212      	movs	r2, #18
10001f96:	56ba      	ldrsb	r2, [r7, r2]
10001f98:	4293      	cmp	r3, r2
10001f9a:	d022      	beq.n	10001fe2 <irq_add_tail_to_free_list+0x9a>
10001f9c:	221e      	movs	r2, #30
10001f9e:	56ba      	ldrsb	r2, [r7, r2]
10001fa0:	4293      	cmp	r3, r2
10001fa2:	d020      	beq.n	10001fe6 <irq_add_tail_to_free_list+0x9e>
10001fa4:	222a      	movs	r2, #42	; 0x2a
10001fa6:	56ba      	ldrsb	r2, [r7, r2]
10001fa8:	2103      	movs	r1, #3
10001faa:	429a      	cmp	r2, r3
10001fac:	d010      	beq.n	10001fd0 <irq_add_tail_to_free_list+0x88>
10001fae:	4a12      	ldr	r2, [pc, #72]	; (10001ff8 <irq_add_tail_to_free_list+0xb0>)
10001fb0:	7811      	ldrb	r1, [r2, #0]
10001fb2:	7013      	strb	r3, [r2, #0]
10001fb4:	71a1      	strb	r1, [r4, #6]
10001fb6:	f3bf 8f5f 	dmb	sy
10001fba:	2200      	movs	r2, #0
10001fbc:	4b0b      	ldr	r3, [pc, #44]	; (10001fec <irq_add_tail_to_free_list+0xa4>)
10001fbe:	601a      	str	r2, [r3, #0]
10001fc0:	f386 8810 	msr	PRIMASK, r6
10001fc4:	bdf8      	pop	{r3, r4, r5, r6, r7, pc}
10001fc6:	6892      	ldr	r2, [r2, #8]
10001fc8:	490c      	ldr	r1, [pc, #48]	; (10001ffc <irq_add_tail_to_free_list+0xb4>)
10001fca:	5011      	str	r1, [r2, r0]
10001fcc:	e7ef      	b.n	10001fae <irq_add_tail_to_free_list+0x66>
10001fce:	2100      	movs	r1, #0
10001fd0:	004a      	lsls	r2, r1, #1
10001fd2:	1852      	adds	r2, r2, r1
10001fd4:	21ff      	movs	r1, #255	; 0xff
10001fd6:	0092      	lsls	r2, r2, #2
10001fd8:	18ba      	adds	r2, r7, r2
10001fda:	7191      	strb	r1, [r2, #6]
10001fdc:	4908      	ldr	r1, [pc, #32]	; (10002000 <irq_add_tail_to_free_list+0xb8>)
10001fde:	8091      	strh	r1, [r2, #4]
10001fe0:	e7e5      	b.n	10001fae <irq_add_tail_to_free_list+0x66>
10001fe2:	2101      	movs	r1, #1
10001fe4:	e7f4      	b.n	10001fd0 <irq_add_tail_to_free_list+0x88>
10001fe6:	2102      	movs	r1, #2
10001fe8:	e7f2      	b.n	10001fd0 <irq_add_tail_to_free_list+0x88>
10001fea:	46c0      	nop			; (mov r8, r8)
10001fec:	d0000124 	.word	0xd0000124
10001ff0:	20000184 	.word	0x20000184
10001ff4:	e000ed00 	.word	0xe000ed00
10001ff8:	20000b26 	.word	0x20000b26
10001ffc:	100001cd 	.word	0x100001cd
10002000:	ffffbd00 	.word	0xffffbd00

10002004 <irq_init_priorities>:
10002004:	b5f0      	push	{r4, r5, r6, r7, lr}
10002006:	2200      	movs	r2, #0
10002008:	2403      	movs	r4, #3
1000200a:	27ff      	movs	r7, #255	; 0xff
1000200c:	2680      	movs	r6, #128	; 0x80
1000200e:	0020      	movs	r0, r4
10002010:	003d      	movs	r5, r7
10002012:	4b09      	ldr	r3, [pc, #36]	; (10002038 <irq_init_priorities+0x34>)
10002014:	0011      	movs	r1, r2
10002016:	469c      	mov	ip, r3
10002018:	4010      	ands	r0, r2
1000201a:	00c0      	lsls	r0, r0, #3
1000201c:	4085      	lsls	r5, r0
1000201e:	43a1      	bics	r1, r4
10002020:	4461      	add	r1, ip
10002022:	680b      	ldr	r3, [r1, #0]
10002024:	3201      	adds	r2, #1
10002026:	43ab      	bics	r3, r5
10002028:	0035      	movs	r5, r6
1000202a:	4085      	lsls	r5, r0
1000202c:	432b      	orrs	r3, r5
1000202e:	600b      	str	r3, [r1, #0]
10002030:	2a20      	cmp	r2, #32
10002032:	d1ec      	bne.n	1000200e <irq_init_priorities+0xa>
10002034:	bdf0      	pop	{r4, r5, r6, r7, pc}
10002036:	46c0      	nop			; (mov r8, r8)
10002038:	e000e400 	.word	0xe000e400

1000203c <_out_char>:
1000203c:	b510      	push	{r4, lr}
1000203e:	2800      	cmp	r0, #0
10002040:	d100      	bne.n	10002044 <_out_char+0x8>
10002042:	bd10      	pop	{r4, pc}
10002044:	f000 fccc 	bl	100029e0 <__wrap_putchar>
10002048:	e7fb      	b.n	10002042 <_out_char+0x6>
1000204a:	46c0      	nop			; (mov r8, r8)

1000204c <weak_raw_vprintf>:
1000204c:	b510      	push	{r4, lr}
1000204e:	4a09      	ldr	r2, [pc, #36]	; (10002074 <weak_raw_vprintf+0x28>)
10002050:	0003      	movs	r3, r0
10002052:	6814      	ldr	r4, [r2, #0]
10002054:	b084      	sub	sp, #16
10002056:	2c00      	cmp	r4, #0
10002058:	d008      	beq.n	1000206c <weak_raw_vprintf+0x20>
1000205a:	2201      	movs	r2, #1
1000205c:	9100      	str	r1, [sp, #0]
1000205e:	4806      	ldr	r0, [pc, #24]	; (10002078 <weak_raw_vprintf+0x2c>)
10002060:	4252      	negs	r2, r2
10002062:	a903      	add	r1, sp, #12
10002064:	47a0      	blx	r4
10002066:	2001      	movs	r0, #1
10002068:	b004      	add	sp, #16
1000206a:	bd10      	pop	{r4, pc}
1000206c:	f000 fcc6 	bl	100029fc <__wrap_puts>
10002070:	2000      	movs	r0, #0
10002072:	e7f9      	b.n	10002068 <weak_raw_vprintf+0x1c>
10002074:	20000afc 	.word	0x20000afc
10002078:	1000203d 	.word	0x1000203d

1000207c <__aeabi_bits_init>:
1000207c:	4801      	ldr	r0, [pc, #4]	; (10002084 <__aeabi_bits_init+0x8>)
1000207e:	2104      	movs	r1, #4
10002080:	4b01      	ldr	r3, [pc, #4]	; (10002088 <__aeabi_bits_init+0xc>)
10002082:	4718      	bx	r3
10002084:	200001d0 	.word	0x200001d0
10002088:	100020ad 	.word	0x100020ad

1000208c <rom_func_lookup>:
1000208c:	2314      	movs	r3, #20
1000208e:	b510      	push	{r4, lr}
10002090:	0001      	movs	r1, r0
10002092:	8818      	ldrh	r0, [r3, #0]
10002094:	3304      	adds	r3, #4
10002096:	881b      	ldrh	r3, [r3, #0]
10002098:	4798      	blx	r3
1000209a:	bd10      	pop	{r4, pc}

1000209c <rom_data_lookup>:
1000209c:	2316      	movs	r3, #22
1000209e:	b510      	push	{r4, lr}
100020a0:	0001      	movs	r1, r0
100020a2:	8818      	ldrh	r0, [r3, #0]
100020a4:	3302      	adds	r3, #2
100020a6:	881b      	ldrh	r3, [r3, #0]
100020a8:	4798      	blx	r3
100020aa:	bd10      	pop	{r4, pc}

100020ac <rom_funcs_lookup>:
100020ac:	b5f0      	push	{r4, r5, r6, r7, lr}
100020ae:	46c6      	mov	lr, r8
100020b0:	b500      	push	{lr}
100020b2:	2900      	cmp	r1, #0
100020b4:	d016      	beq.n	100020e4 <rom_funcs_lookup+0x38>
100020b6:	2314      	movs	r3, #20
100020b8:	0004      	movs	r4, r0
100020ba:	2501      	movs	r5, #1
100020bc:	4698      	mov	r8, r3
100020be:	2718      	movs	r7, #24
100020c0:	0089      	lsls	r1, r1, #2
100020c2:	1846      	adds	r6, r0, r1
100020c4:	4643      	mov	r3, r8
100020c6:	6821      	ldr	r1, [r4, #0]
100020c8:	8818      	ldrh	r0, [r3, #0]
100020ca:	883b      	ldrh	r3, [r7, #0]
100020cc:	4798      	blx	r3
100020ce:	c401      	stmia	r4!, {r0}
100020d0:	1e43      	subs	r3, r0, #1
100020d2:	4198      	sbcs	r0, r3
100020d4:	4240      	negs	r0, r0
100020d6:	4005      	ands	r5, r0
100020d8:	42a6      	cmp	r6, r4
100020da:	d1f3      	bne.n	100020c4 <rom_funcs_lookup+0x18>
100020dc:	0028      	movs	r0, r5
100020de:	bc04      	pop	{r2}
100020e0:	4690      	mov	r8, r2
100020e2:	bdf0      	pop	{r4, r5, r6, r7, pc}
100020e4:	2501      	movs	r5, #1
100020e6:	e7f9      	b.n	100020dc <rom_funcs_lookup+0x30>

100020e8 <__wrap___aeabi_idiv>:
100020e8:	4a14      	ldr	r2, [pc, #80]	; (1000213c <divmod_s32s32_savestate+0x20>)
100020ea:	6f93      	ldr	r3, [r2, #120]	; 0x78
100020ec:	089b      	lsrs	r3, r3, #2
100020ee:	d215      	bcs.n	1000211c <divmod_s32s32_savestate>

100020f0 <divmod_s32s32_unsafe>:
100020f0:	6690      	str	r0, [r2, #104]	; 0x68
100020f2:	66d1      	str	r1, [r2, #108]	; 0x6c
100020f4:	2900      	cmp	r1, #0
100020f6:	d005      	beq.n	10002104 <divmod_s32s32_unsafe+0x14>
100020f8:	e7ff      	b.n	100020fa <divmod_s32s32_unsafe+0xa>
100020fa:	e7ff      	b.n	100020fc <divmod_s32s32_unsafe+0xc>
100020fc:	e7ff      	b.n	100020fe <divmod_s32s32_unsafe+0xe>
100020fe:	6f51      	ldr	r1, [r2, #116]	; 0x74
10002100:	6f10      	ldr	r0, [r2, #112]	; 0x70
10002102:	4770      	bx	lr
10002104:	b504      	push	{r2, lr}
10002106:	2180      	movs	r1, #128	; 0x80
10002108:	0609      	lsls	r1, r1, #24
1000210a:	17c2      	asrs	r2, r0, #31
1000210c:	4051      	eors	r1, r2
1000210e:	2800      	cmp	r0, #0
10002110:	d000      	beq.n	10002114 <divmod_s32s32_unsafe+0x24>
10002112:	43c8      	mvns	r0, r1
10002114:	f001 f9fc 	bl	10003510 <____aeabi_idiv0_veneer>
10002118:	2100      	movs	r1, #0
1000211a:	bd04      	pop	{r2, pc}

1000211c <divmod_s32s32_savestate>:
1000211c:	6f93      	ldr	r3, [r2, #120]	; 0x78
1000211e:	085b      	lsrs	r3, r3, #1
10002120:	d3fd      	bcc.n	1000211e <divmod_s32s32_savestate+0x2>
10002122:	b5f0      	push	{r4, r5, r6, r7, lr}
10002124:	6e94      	ldr	r4, [r2, #104]	; 0x68
10002126:	6ed5      	ldr	r5, [r2, #108]	; 0x6c
10002128:	6f57      	ldr	r7, [r2, #116]	; 0x74
1000212a:	6f16      	ldr	r6, [r2, #112]	; 0x70
1000212c:	f7ff ffe0 	bl	100020f0 <divmod_s32s32_unsafe>
10002130:	6694      	str	r4, [r2, #104]	; 0x68
10002132:	66d5      	str	r5, [r2, #108]	; 0x6c
10002134:	6757      	str	r7, [r2, #116]	; 0x74
10002136:	6716      	str	r6, [r2, #112]	; 0x70
10002138:	bdf0      	pop	{r4, r5, r6, r7, pc}
1000213a:	0000      	.short	0x0000
1000213c:	d0000000 	.word	0xd0000000

10002140 <__wrap___aeabi_uidiv>:
10002140:	4a13      	ldr	r2, [pc, #76]	; (10002190 <divmod_u32u32_savestate+0x20>)
10002142:	6f93      	ldr	r3, [r2, #120]	; 0x78
10002144:	089b      	lsrs	r3, r3, #2
10002146:	d213      	bcs.n	10002170 <divmod_u32u32_savestate>

10002148 <divmod_u32u32_unsafe>:
10002148:	6610      	str	r0, [r2, #96]	; 0x60
1000214a:	6651      	str	r1, [r2, #100]	; 0x64
1000214c:	2900      	cmp	r1, #0
1000214e:	d005      	beq.n	1000215c <divmod_u32u32_unsafe+0x14>
10002150:	e7ff      	b.n	10002152 <divmod_u32u32_unsafe+0xa>
10002152:	e7ff      	b.n	10002154 <divmod_u32u32_unsafe+0xc>
10002154:	e7ff      	b.n	10002156 <divmod_u32u32_unsafe+0xe>
10002156:	6f51      	ldr	r1, [r2, #116]	; 0x74
10002158:	6f10      	ldr	r0, [r2, #112]	; 0x70
1000215a:	4770      	bx	lr
1000215c:	b504      	push	{r2, lr}
1000215e:	2800      	cmp	r0, #0
10002160:	d001      	beq.n	10002166 <divmod_u32u32_unsafe+0x1e>
10002162:	2000      	movs	r0, #0
10002164:	43c0      	mvns	r0, r0
10002166:	f001 f9d3 	bl	10003510 <____aeabi_idiv0_veneer>
1000216a:	2100      	movs	r1, #0
1000216c:	bd04      	pop	{r2, pc}
1000216e:	46c0      	nop			; (mov r8, r8)

10002170 <divmod_u32u32_savestate>:
10002170:	6f93      	ldr	r3, [r2, #120]	; 0x78
10002172:	085b      	lsrs	r3, r3, #1
10002174:	d3fd      	bcc.n	10002172 <divmod_u32u32_savestate+0x2>
10002176:	b5f0      	push	{r4, r5, r6, r7, lr}
10002178:	6e94      	ldr	r4, [r2, #104]	; 0x68
1000217a:	6ed5      	ldr	r5, [r2, #108]	; 0x6c
1000217c:	6f57      	ldr	r7, [r2, #116]	; 0x74
1000217e:	6f16      	ldr	r6, [r2, #112]	; 0x70
10002180:	f7ff ffe2 	bl	10002148 <divmod_u32u32_unsafe>
10002184:	6694      	str	r4, [r2, #104]	; 0x68
10002186:	66d5      	str	r5, [r2, #108]	; 0x6c
10002188:	6757      	str	r7, [r2, #116]	; 0x74
1000218a:	6716      	str	r6, [r2, #112]	; 0x70
1000218c:	bdf0      	pop	{r4, r5, r6, r7, pc}
1000218e:	0000      	.short	0x0000
10002190:	d0000000 	.word	0xd0000000

10002194 <__wrap___aeabi_ldivmod>:
10002194:	4694      	mov	ip, r2
10002196:	4a4e      	ldr	r2, [pc, #312]	; (100022d0 <udiv0+0x1a>)
10002198:	6f92      	ldr	r2, [r2, #120]	; 0x78
1000219a:	0892      	lsrs	r2, r2, #2
1000219c:	4662      	mov	r2, ip
1000219e:	d201      	bcs.n	100021a4 <divmod_s64s64_savestate>
100021a0:	e030      	b.n	10002204 <divmod_s64s64_unsafe>
100021a2:	46c0      	nop			; (mov r8, r8)

100021a4 <divmod_s64s64_savestate>:
100021a4:	b5f0      	push	{r4, r5, r6, r7, lr}
100021a6:	4e4a      	ldr	r6, [pc, #296]	; (100022d0 <udiv0+0x1a>)
100021a8:	6fb5      	ldr	r5, [r6, #120]	; 0x78
100021aa:	086d      	lsrs	r5, r5, #1
100021ac:	d3fc      	bcc.n	100021a8 <divmod_s64s64_savestate+0x4>
100021ae:	6e34      	ldr	r4, [r6, #96]	; 0x60
100021b0:	6e75      	ldr	r5, [r6, #100]	; 0x64
100021b2:	6f77      	ldr	r7, [r6, #116]	; 0x74
100021b4:	6f36      	ldr	r6, [r6, #112]	; 0x70
100021b6:	f000 f825 	bl	10002204 <divmod_s64s64_unsafe>
100021ba:	4694      	mov	ip, r2
100021bc:	4a44      	ldr	r2, [pc, #272]	; (100022d0 <udiv0+0x1a>)
100021be:	6614      	str	r4, [r2, #96]	; 0x60
100021c0:	6655      	str	r5, [r2, #100]	; 0x64
100021c2:	6757      	str	r7, [r2, #116]	; 0x74
100021c4:	6716      	str	r6, [r2, #112]	; 0x70
100021c6:	4662      	mov	r2, ip
100021c8:	bdf0      	pop	{r4, r5, r6, r7, pc}
100021ca:	46c0      	nop			; (mov r8, r8)

100021cc <__wrap___aeabi_uldivmod>:
100021cc:	4694      	mov	ip, r2
100021ce:	4a40      	ldr	r2, [pc, #256]	; (100022d0 <udiv0+0x1a>)
100021d0:	6f92      	ldr	r2, [r2, #120]	; 0x78
100021d2:	0892      	lsrs	r2, r2, #2
100021d4:	4662      	mov	r2, ip
100021d6:	d201      	bcs.n	100021dc <divmod_u64u64_savestate>
100021d8:	e058      	b.n	1000228c <divmod_u64u64_unsafe>
100021da:	46c0      	nop			; (mov r8, r8)

100021dc <divmod_u64u64_savestate>:
100021dc:	b5f0      	push	{r4, r5, r6, r7, lr}
100021de:	4e3c      	ldr	r6, [pc, #240]	; (100022d0 <udiv0+0x1a>)
100021e0:	6fb5      	ldr	r5, [r6, #120]	; 0x78
100021e2:	086d      	lsrs	r5, r5, #1
100021e4:	d3fc      	bcc.n	100021e0 <divmod_u64u64_savestate+0x4>
100021e6:	6e34      	ldr	r4, [r6, #96]	; 0x60
100021e8:	6e75      	ldr	r5, [r6, #100]	; 0x64
100021ea:	6f77      	ldr	r7, [r6, #116]	; 0x74
100021ec:	6f36      	ldr	r6, [r6, #112]	; 0x70
100021ee:	f000 f84d 	bl	1000228c <divmod_u64u64_unsafe>
100021f2:	4694      	mov	ip, r2
100021f4:	4a36      	ldr	r2, [pc, #216]	; (100022d0 <udiv0+0x1a>)
100021f6:	6614      	str	r4, [r2, #96]	; 0x60
100021f8:	6655      	str	r5, [r2, #100]	; 0x64
100021fa:	6757      	str	r7, [r2, #116]	; 0x74
100021fc:	6716      	str	r6, [r2, #112]	; 0x70
100021fe:	4662      	mov	r2, ip
10002200:	bdf0      	pop	{r4, r5, r6, r7, pc}
10002202:	46c0      	nop			; (mov r8, r8)

10002204 <divmod_s64s64_unsafe>:
10002204:	2b00      	cmp	r3, #0
10002206:	db24      	blt.n	10002252 <l41_1+0x26>
10002208:	d011      	beq.n	1000222e <l41_1+0x2>
1000220a:	2900      	cmp	r1, #0
1000220c:	da3e      	bge.n	1000228c <divmod_u64u64_unsafe>
1000220e:	b500      	push	{lr}
10002210:	43c9      	mvns	r1, r1
10002212:	4240      	negs	r0, r0
10002214:	d100      	bne.n	10002218 <l39_1>
10002216:	3101      	adds	r1, #1

10002218 <l39_1>:
10002218:	f000 f838 	bl	1000228c <divmod_u64u64_unsafe>
1000221c:	43c9      	mvns	r1, r1
1000221e:	4240      	negs	r0, r0
10002220:	d100      	bne.n	10002224 <l40_1>
10002222:	3101      	adds	r1, #1

10002224 <l40_1>:
10002224:	43db      	mvns	r3, r3
10002226:	4252      	negs	r2, r2
10002228:	d100      	bne.n	1000222c <l41_1>
1000222a:	3301      	adds	r3, #1

1000222c <l41_1>:
1000222c:	bd00      	pop	{pc}
1000222e:	2a00      	cmp	r2, #0
10002230:	d1eb      	bne.n	1000220a <divmod_s64s64_unsafe+0x6>
10002232:	2800      	cmp	r0, #0
10002234:	d101      	bne.n	1000223a <l41_1+0xe>
10002236:	2900      	cmp	r1, #0
10002238:	d005      	beq.n	10002246 <l41_1+0x1a>
1000223a:	2000      	movs	r0, #0
1000223c:	0fc9      	lsrs	r1, r1, #31
1000223e:	07c9      	lsls	r1, r1, #31
10002240:	d101      	bne.n	10002246 <l41_1+0x1a>
10002242:	43c0      	mvns	r0, r0
10002244:	0841      	lsrs	r1, r0, #1
10002246:	b500      	push	{lr}
10002248:	f001 f95a 	bl	10003500 <____aeabi_ldiv0_veneer>
1000224c:	2200      	movs	r2, #0
1000224e:	2300      	movs	r3, #0
10002250:	bd00      	pop	{pc}
10002252:	b500      	push	{lr}
10002254:	2900      	cmp	r1, #0
10002256:	db0a      	blt.n	1000226e <l43_1+0x2>
10002258:	43db      	mvns	r3, r3
1000225a:	4252      	negs	r2, r2
1000225c:	d100      	bne.n	10002260 <l42_1>
1000225e:	3301      	adds	r3, #1

10002260 <l42_1>:
10002260:	f000 f814 	bl	1000228c <divmod_u64u64_unsafe>
10002264:	43c9      	mvns	r1, r1
10002266:	4240      	negs	r0, r0
10002268:	d100      	bne.n	1000226c <l43_1>
1000226a:	3101      	adds	r1, #1

1000226c <l43_1>:
1000226c:	bd00      	pop	{pc}
1000226e:	43c9      	mvns	r1, r1
10002270:	4240      	negs	r0, r0
10002272:	d100      	bne.n	10002276 <l44_1>
10002274:	3101      	adds	r1, #1

10002276 <l44_1>:
10002276:	43db      	mvns	r3, r3
10002278:	4252      	negs	r2, r2
1000227a:	d100      	bne.n	1000227e <l45_1>
1000227c:	3301      	adds	r3, #1

1000227e <l45_1>:
1000227e:	f000 f805 	bl	1000228c <divmod_u64u64_unsafe>
10002282:	43db      	mvns	r3, r3
10002284:	4252      	negs	r2, r2
10002286:	d100      	bne.n	1000228a <l46_1>
10002288:	3301      	adds	r3, #1

1000228a <l46_1>:
1000228a:	bd00      	pop	{pc}

1000228c <divmod_u64u64_unsafe>:
1000228c:	2900      	cmp	r1, #0
1000228e:	d123      	bne.n	100022d8 <y64>
10002290:	2b00      	cmp	r3, #0
10002292:	d118      	bne.n	100022c6 <udiv0+0x10>
10002294:	2a00      	cmp	r2, #0
10002296:	d00c      	beq.n	100022b2 <divmod_u64u64_unsafe+0x26>
10002298:	46bc      	mov	ip, r7
1000229a:	4f0d      	ldr	r7, [pc, #52]	; (100022d0 <udiv0+0x1a>)
1000229c:	6638      	str	r0, [r7, #96]	; 0x60
1000229e:	667a      	str	r2, [r7, #100]	; 0x64
100022a0:	2100      	movs	r1, #0
100022a2:	2300      	movs	r3, #0
100022a4:	e7ff      	b.n	100022a6 <divmod_u64u64_unsafe+0x1a>
100022a6:	e7ff      	b.n	100022a8 <divmod_u64u64_unsafe+0x1c>
100022a8:	e7ff      	b.n	100022aa <divmod_u64u64_unsafe+0x1e>
100022aa:	6f7a      	ldr	r2, [r7, #116]	; 0x74
100022ac:	6f38      	ldr	r0, [r7, #112]	; 0x70
100022ae:	4667      	mov	r7, ip
100022b0:	4770      	bx	lr
100022b2:	2800      	cmp	r0, #0
100022b4:	d001      	beq.n	100022ba <udiv0+0x4>

100022b6 <udiv0>:
100022b6:	4807      	ldr	r0, [pc, #28]	; (100022d4 <udiv0+0x1e>)
100022b8:	0001      	movs	r1, r0
100022ba:	b500      	push	{lr}
100022bc:	f001 f920 	bl	10003500 <____aeabi_ldiv0_veneer>
100022c0:	2200      	movs	r2, #0
100022c2:	2300      	movs	r3, #0
100022c4:	bd00      	pop	{pc}
100022c6:	0002      	movs	r2, r0
100022c8:	000b      	movs	r3, r1
100022ca:	2000      	movs	r0, #0
100022cc:	2100      	movs	r1, #0
100022ce:	4770      	bx	lr
100022d0:	d0000000 	.word	0xd0000000
100022d4:	ffffffff 	.word	0xffffffff

100022d8 <y64>:
100022d8:	2b00      	cmp	r3, #0
100022da:	d000      	beq.n	100022de <y64+0x6>
100022dc:	e0bd      	b.n	1000245a <y64_x48>
100022de:	0c13      	lsrs	r3, r2, #16
100022e0:	d126      	bne.n	10002330 <y64_x32>
100022e2:	2a00      	cmp	r2, #0
100022e4:	d0e7      	beq.n	100022b6 <udiv0>
100022e6:	b480      	push	{r7}
100022e8:	4f10      	ldr	r7, [pc, #64]	; (1000232c <y64+0x54>)
100022ea:	6639      	str	r1, [r7, #96]	; 0x60
100022ec:	667a      	str	r2, [r7, #100]	; 0x64
100022ee:	e7ff      	b.n	100022f0 <y64+0x18>
100022f0:	e7ff      	b.n	100022f2 <y64+0x1a>
100022f2:	b430      	push	{r4, r5}
100022f4:	0c04      	lsrs	r4, r0, #16
100022f6:	6f7b      	ldr	r3, [r7, #116]	; 0x74
100022f8:	6f39      	ldr	r1, [r7, #112]	; 0x70
100022fa:	041b      	lsls	r3, r3, #16
100022fc:	4323      	orrs	r3, r4
100022fe:	663b      	str	r3, [r7, #96]	; 0x60
10002300:	e7ff      	b.n	10002302 <y64+0x2a>
10002302:	e7ff      	b.n	10002304 <y64+0x2c>
10002304:	e7ff      	b.n	10002306 <y64+0x2e>
10002306:	46c0      	nop			; (mov r8, r8)
10002308:	b284      	uxth	r4, r0
1000230a:	6f7b      	ldr	r3, [r7, #116]	; 0x74
1000230c:	6f3d      	ldr	r5, [r7, #112]	; 0x70
1000230e:	041b      	lsls	r3, r3, #16
10002310:	4323      	orrs	r3, r4
10002312:	663b      	str	r3, [r7, #96]	; 0x60
10002314:	e7ff      	b.n	10002316 <y64+0x3e>
10002316:	e7ff      	b.n	10002318 <y64+0x40>
10002318:	46c0      	nop			; (mov r8, r8)
1000231a:	2300      	movs	r3, #0
1000231c:	042c      	lsls	r4, r5, #16
1000231e:	0c2d      	lsrs	r5, r5, #16
10002320:	6f7a      	ldr	r2, [r7, #116]	; 0x74
10002322:	6f38      	ldr	r0, [r7, #112]	; 0x70
10002324:	1900      	adds	r0, r0, r4
10002326:	4169      	adcs	r1, r5
10002328:	bcb0      	pop	{r4, r5, r7}
1000232a:	4770      	bx	lr
1000232c:	d0000000 	.word	0xd0000000

10002330 <y64_x32>:
10002330:	b5f0      	push	{r4, r5, r6, r7, lr}
10002332:	4694      	mov	ip, r2
10002334:	2500      	movs	r5, #0
10002336:	0e14      	lsrs	r4, r2, #24
10002338:	d101      	bne.n	1000233e <y64_x32+0xe>
1000233a:	0212      	lsls	r2, r2, #8
1000233c:	3508      	adds	r5, #8
1000233e:	0f14      	lsrs	r4, r2, #28
10002340:	d101      	bne.n	10002346 <y64_x32+0x16>
10002342:	0112      	lsls	r2, r2, #4
10002344:	3504      	adds	r5, #4
10002346:	0f94      	lsrs	r4, r2, #30
10002348:	d101      	bne.n	1000234e <y64_x32+0x1e>
1000234a:	0092      	lsls	r2, r2, #2
1000234c:	3502      	adds	r5, #2
1000234e:	0fd4      	lsrs	r4, r2, #31
10002350:	d101      	bne.n	10002356 <y64_x32+0x26>
10002352:	0052      	lsls	r2, r2, #1
10002354:	3501      	adds	r5, #1
10002356:	0bd4      	lsrs	r4, r2, #15
10002358:	3401      	adds	r4, #1
1000235a:	4f25      	ldr	r7, [pc, #148]	; (100023f0 <y64_x32+0xc0>)
1000235c:	667c      	str	r4, [r7, #100]	; 0x64
1000235e:	4c25      	ldr	r4, [pc, #148]	; (100023f4 <y64_x32+0xc4>)
10002360:	663c      	str	r4, [r7, #96]	; 0x60
10002362:	0c0e      	lsrs	r6, r1, #16
10002364:	b293      	uxth	r3, r2
10002366:	e7ff      	b.n	10002368 <y64_x32+0x38>
10002368:	e7ff      	b.n	1000236a <y64_x32+0x3a>
1000236a:	e7ff      	b.n	1000236c <y64_x32+0x3c>
1000236c:	6f3c      	ldr	r4, [r7, #112]	; 0x70
1000236e:	4366      	muls	r6, r4
10002370:	0c36      	lsrs	r6, r6, #16
10002372:	0377      	lsls	r7, r6, #13
10002374:	46be      	mov	lr, r7
10002376:	4373      	muls	r3, r6
10002378:	0bdf      	lsrs	r7, r3, #15
1000237a:	045b      	lsls	r3, r3, #17
1000237c:	1ac0      	subs	r0, r0, r3
1000237e:	41b9      	sbcs	r1, r7
10002380:	0c13      	lsrs	r3, r2, #16
10002382:	4373      	muls	r3, r6
10002384:	18db      	adds	r3, r3, r3
10002386:	1ac9      	subs	r1, r1, r3
10002388:	08ce      	lsrs	r6, r1, #3
1000238a:	4366      	muls	r6, r4
1000238c:	0c36      	lsrs	r6, r6, #16
1000238e:	44b6      	add	lr, r6
10002390:	b293      	uxth	r3, r2
10002392:	4373      	muls	r3, r6
10002394:	0f1f      	lsrs	r7, r3, #28
10002396:	011b      	lsls	r3, r3, #4
10002398:	1ac0      	subs	r0, r0, r3
1000239a:	41b9      	sbcs	r1, r7
1000239c:	0c13      	lsrs	r3, r2, #16
1000239e:	4373      	muls	r3, r6
100023a0:	0b1f      	lsrs	r7, r3, #12
100023a2:	051b      	lsls	r3, r3, #20
100023a4:	1ac0      	subs	r0, r0, r3
100023a6:	41b9      	sbcs	r1, r7
100023a8:	0d86      	lsrs	r6, r0, #22
100023aa:	028f      	lsls	r7, r1, #10
100023ac:	433e      	orrs	r6, r7
100023ae:	4366      	muls	r6, r4
100023b0:	0c36      	lsrs	r6, r6, #16
100023b2:	2d09      	cmp	r5, #9
100023b4:	db24      	blt.n	10002400 <last0>
100023b6:	0a52      	lsrs	r2, r2, #9
100023b8:	4372      	muls	r2, r6
100023ba:	1a80      	subs	r0, r0, r2
100023bc:	0377      	lsls	r7, r6, #13
100023be:	0a46      	lsrs	r6, r0, #9
100023c0:	4366      	muls	r6, r4
100023c2:	0c36      	lsrs	r6, r6, #16
100023c4:	2316      	movs	r3, #22
100023c6:	1b5b      	subs	r3, r3, r5
100023c8:	40de      	lsrs	r6, r3
100023ca:	40df      	lsrs	r7, r3
100023cc:	19bf      	adds	r7, r7, r6
100023ce:	4664      	mov	r4, ip
100023d0:	4366      	muls	r6, r4
100023d2:	1b82      	subs	r2, r0, r6
100023d4:	4670      	mov	r0, lr
100023d6:	3504      	adds	r5, #4
100023d8:	3306      	adds	r3, #6
100023da:	0001      	movs	r1, r0
100023dc:	40d9      	lsrs	r1, r3
100023de:	40a8      	lsls	r0, r5
100023e0:	19c0      	adds	r0, r0, r7
100023e2:	d300      	bcc.n	100023e6 <y64_x32+0xb6>
100023e4:	3101      	adds	r1, #1
100023e6:	42a2      	cmp	r2, r4
100023e8:	d206      	bcs.n	100023f8 <y64_x32+0xc8>
100023ea:	2300      	movs	r3, #0
100023ec:	bdf0      	pop	{r4, r5, r6, r7, pc}
100023ee:	0000      	.short	0x0000
100023f0:	d0000000 	.word	0xd0000000
100023f4:	ffffffff 	.word	0xffffffff
100023f8:	1b12      	subs	r2, r2, r4
100023fa:	3001      	adds	r0, #1
100023fc:	d3f3      	bcc.n	100023e6 <y64_x32+0xb6>
100023fe:	e7f1      	b.n	100023e4 <y64_x32+0xb4>

10002400 <last0>:
10002400:	2709      	movs	r7, #9
10002402:	1b7f      	subs	r7, r7, r5
10002404:	40fe      	lsrs	r6, r7
10002406:	4664      	mov	r4, ip
10002408:	b2a2      	uxth	r2, r4
1000240a:	4372      	muls	r2, r6
1000240c:	1a80      	subs	r0, r0, r2
1000240e:	d200      	bcs.n	10002412 <last0+0x12>
10002410:	3901      	subs	r1, #1
10002412:	0c22      	lsrs	r2, r4, #16
10002414:	4372      	muls	r2, r6
10002416:	0c13      	lsrs	r3, r2, #16
10002418:	0412      	lsls	r2, r2, #16
1000241a:	1a82      	subs	r2, r0, r2
1000241c:	4199      	sbcs	r1, r3
1000241e:	000b      	movs	r3, r1
10002420:	4670      	mov	r0, lr
10002422:	3504      	adds	r5, #4
10002424:	3713      	adds	r7, #19
10002426:	0001      	movs	r1, r0
10002428:	40f9      	lsrs	r1, r7
1000242a:	40a8      	lsls	r0, r5
1000242c:	1980      	adds	r0, r0, r6
1000242e:	d300      	bcc.n	10002432 <last0+0x32>
10002430:	3101      	adds	r1, #1
10002432:	2b00      	cmp	r3, #0
10002434:	d102      	bne.n	1000243c <last0+0x3c>
10002436:	42a2      	cmp	r2, r4
10002438:	d20a      	bcs.n	10002450 <last0+0x50>
1000243a:	bdf0      	pop	{r4, r5, r6, r7, pc}
1000243c:	3001      	adds	r0, #1
1000243e:	d300      	bcc.n	10002442 <last0+0x42>
10002440:	3101      	adds	r1, #1
10002442:	1b12      	subs	r2, r2, r4
10002444:	d2fa      	bcs.n	1000243c <last0+0x3c>
10002446:	3b01      	subs	r3, #1
10002448:	d1f8      	bne.n	1000243c <last0+0x3c>
1000244a:	42a2      	cmp	r2, r4
1000244c:	d200      	bcs.n	10002450 <last0+0x50>
1000244e:	bdf0      	pop	{r4, r5, r6, r7, pc}
10002450:	3001      	adds	r0, #1
10002452:	d300      	bcc.n	10002456 <last0+0x56>
10002454:	3101      	adds	r1, #1
10002456:	1b12      	subs	r2, r2, r4
10002458:	e7f7      	b.n	1000244a <last0+0x4a>

1000245a <y64_x48>:
1000245a:	b5f0      	push	{r4, r5, r6, r7, lr}
1000245c:	0c1c      	lsrs	r4, r3, #16
1000245e:	d000      	beq.n	10002462 <y64_x48+0x8>
10002460:	e080      	b.n	10002564 <y64_x64>
10002462:	b40c      	push	{r2, r3}
10002464:	2500      	movs	r5, #0
10002466:	0a1c      	lsrs	r4, r3, #8
10002468:	d104      	bne.n	10002474 <y64_x48+0x1a>
1000246a:	021b      	lsls	r3, r3, #8
1000246c:	0e16      	lsrs	r6, r2, #24
1000246e:	4333      	orrs	r3, r6
10002470:	0212      	lsls	r2, r2, #8
10002472:	3508      	adds	r5, #8
10002474:	0b1c      	lsrs	r4, r3, #12
10002476:	d104      	bne.n	10002482 <y64_x48+0x28>
10002478:	011b      	lsls	r3, r3, #4
1000247a:	0f16      	lsrs	r6, r2, #28
1000247c:	4333      	orrs	r3, r6
1000247e:	0112      	lsls	r2, r2, #4
10002480:	3504      	adds	r5, #4
10002482:	0b9c      	lsrs	r4, r3, #14
10002484:	d104      	bne.n	10002490 <y64_x48+0x36>
10002486:	009b      	lsls	r3, r3, #2
10002488:	0f96      	lsrs	r6, r2, #30
1000248a:	4333      	orrs	r3, r6
1000248c:	0092      	lsls	r2, r2, #2
1000248e:	3502      	adds	r5, #2
10002490:	0bdc      	lsrs	r4, r3, #15
10002492:	d102      	bne.n	1000249a <y64_x48+0x40>
10002494:	1892      	adds	r2, r2, r2
10002496:	415b      	adcs	r3, r3
10002498:	3501      	adds	r5, #1
1000249a:	001c      	movs	r4, r3
1000249c:	1897      	adds	r7, r2, r2
1000249e:	4164      	adcs	r4, r4
100024a0:	3401      	adds	r4, #1
100024a2:	4f46      	ldr	r7, [pc, #280]	; (100025bc <y64_x64+0x58>)
100024a4:	667c      	str	r4, [r7, #100]	; 0x64
100024a6:	4c46      	ldr	r4, [pc, #280]	; (100025c0 <y64_x64+0x5c>)
100024a8:	663c      	str	r4, [r7, #96]	; 0x60
100024aa:	0c0e      	lsrs	r6, r1, #16
100024ac:	e7ff      	b.n	100024ae <y64_x48+0x54>
100024ae:	e7ff      	b.n	100024b0 <y64_x48+0x56>
100024b0:	e7ff      	b.n	100024b2 <y64_x48+0x58>
100024b2:	46c0      	nop			; (mov r8, r8)
100024b4:	6f3c      	ldr	r4, [r7, #112]	; 0x70
100024b6:	4366      	muls	r6, r4
100024b8:	0c36      	lsrs	r6, r6, #16
100024ba:	0377      	lsls	r7, r6, #13
100024bc:	46be      	mov	lr, r7
100024be:	b297      	uxth	r7, r2
100024c0:	4377      	muls	r7, r6
100024c2:	1bc0      	subs	r0, r0, r7
100024c4:	d200      	bcs.n	100024c8 <y64_x48+0x6e>
100024c6:	3901      	subs	r1, #1
100024c8:	1bc0      	subs	r0, r0, r7
100024ca:	d200      	bcs.n	100024ce <y64_x48+0x74>
100024cc:	3901      	subs	r1, #1
100024ce:	b29f      	uxth	r7, r3
100024d0:	4377      	muls	r7, r6
100024d2:	1bc9      	subs	r1, r1, r7
100024d4:	1bc9      	subs	r1, r1, r7
100024d6:	0c17      	lsrs	r7, r2, #16
100024d8:	4377      	muls	r7, r6
100024da:	047e      	lsls	r6, r7, #17
100024dc:	0bff      	lsrs	r7, r7, #15
100024de:	1b80      	subs	r0, r0, r6
100024e0:	41b9      	sbcs	r1, r7
100024e2:	08ce      	lsrs	r6, r1, #3
100024e4:	4366      	muls	r6, r4
100024e6:	0c36      	lsrs	r6, r6, #16
100024e8:	2d0c      	cmp	r5, #12
100024ea:	db33      	blt.n	10002554 <last1>
100024ec:	44b6      	add	lr, r6
100024ee:	0b12      	lsrs	r2, r2, #12
100024f0:	051f      	lsls	r7, r3, #20
100024f2:	433a      	orrs	r2, r7
100024f4:	0b1b      	lsrs	r3, r3, #12
100024f6:	b297      	uxth	r7, r2
100024f8:	4377      	muls	r7, r6
100024fa:	1bc0      	subs	r0, r0, r7
100024fc:	d200      	bcs.n	10002500 <y64_x48+0xa6>
100024fe:	3901      	subs	r1, #1
10002500:	b29f      	uxth	r7, r3
10002502:	4377      	muls	r7, r6
10002504:	1bc9      	subs	r1, r1, r7
10002506:	0c17      	lsrs	r7, r2, #16
10002508:	4377      	muls	r7, r6
1000250a:	043e      	lsls	r6, r7, #16
1000250c:	0c3f      	lsrs	r7, r7, #16
1000250e:	1b80      	subs	r0, r0, r6
10002510:	41b9      	sbcs	r1, r7
10002512:	0d86      	lsrs	r6, r0, #22
10002514:	028f      	lsls	r7, r1, #10
10002516:	433e      	orrs	r6, r7
10002518:	4366      	muls	r6, r4
1000251a:	2729      	movs	r7, #41	; 0x29
1000251c:	1b7f      	subs	r7, r7, r5
1000251e:	40fe      	lsrs	r6, r7
10002520:	3d0c      	subs	r5, #12
10002522:	4677      	mov	r7, lr
10002524:	40af      	lsls	r7, r5
10002526:	19bf      	adds	r7, r7, r6
10002528:	bc30      	pop	{r4, r5}
1000252a:	b2a2      	uxth	r2, r4
1000252c:	b2ab      	uxth	r3, r5
1000252e:	4372      	muls	r2, r6
10002530:	4373      	muls	r3, r6
10002532:	1a80      	subs	r0, r0, r2
10002534:	4199      	sbcs	r1, r3
10002536:	0c22      	lsrs	r2, r4, #16
10002538:	4372      	muls	r2, r6
1000253a:	0c13      	lsrs	r3, r2, #16
1000253c:	0412      	lsls	r2, r2, #16
1000253e:	1a80      	subs	r0, r0, r2
10002540:	4199      	sbcs	r1, r3
10002542:	0002      	movs	r2, r0
10002544:	000b      	movs	r3, r1
10002546:	3701      	adds	r7, #1
10002548:	1b00      	subs	r0, r0, r4
1000254a:	41a9      	sbcs	r1, r5
1000254c:	d2f9      	bcs.n	10002542 <y64_x48+0xe8>
1000254e:	1e78      	subs	r0, r7, #1
10002550:	2100      	movs	r1, #0
10002552:	bdf0      	pop	{r4, r5, r6, r7, pc}

10002554 <last1>:
10002554:	270c      	movs	r7, #12
10002556:	1b7f      	subs	r7, r7, r5
10002558:	40fe      	lsrs	r6, r7
1000255a:	4677      	mov	r7, lr
1000255c:	0b7f      	lsrs	r7, r7, #13
1000255e:	40af      	lsls	r7, r5
10002560:	19ff      	adds	r7, r7, r7
10002562:	e7e0      	b.n	10002526 <y64_x48+0xcc>

10002564 <y64_x64>:
10002564:	2400      	movs	r4, #0
10002566:	1c5d      	adds	r5, r3, #1
10002568:	d007      	beq.n	1000257a <y64_x64+0x16>
1000256a:	4f14      	ldr	r7, [pc, #80]	; (100025bc <y64_x64+0x58>)
1000256c:	667d      	str	r5, [r7, #100]	; 0x64
1000256e:	6639      	str	r1, [r7, #96]	; 0x60
10002570:	e7ff      	b.n	10002572 <y64_x64+0xe>
10002572:	e7ff      	b.n	10002574 <y64_x64+0x10>
10002574:	e7ff      	b.n	10002576 <y64_x64+0x12>
10002576:	e7ff      	b.n	10002578 <y64_x64+0x14>
10002578:	6f3c      	ldr	r4, [r7, #112]	; 0x70
1000257a:	b295      	uxth	r5, r2
1000257c:	b29e      	uxth	r6, r3
1000257e:	4365      	muls	r5, r4
10002580:	4366      	muls	r6, r4
10002582:	1b40      	subs	r0, r0, r5
10002584:	41b1      	sbcs	r1, r6
10002586:	0c15      	lsrs	r5, r2, #16
10002588:	0c1e      	lsrs	r6, r3, #16
1000258a:	4365      	muls	r5, r4
1000258c:	4366      	muls	r6, r4
1000258e:	0436      	lsls	r6, r6, #16
10002590:	0c2f      	lsrs	r7, r5, #16
10002592:	433e      	orrs	r6, r7
10002594:	042d      	lsls	r5, r5, #16
10002596:	1b40      	subs	r0, r0, r5
10002598:	41b1      	sbcs	r1, r6
1000259a:	4299      	cmp	r1, r3
1000259c:	d204      	bcs.n	100025a8 <y64_x64+0x44>
1000259e:	0002      	movs	r2, r0
100025a0:	000b      	movs	r3, r1
100025a2:	0020      	movs	r0, r4
100025a4:	2100      	movs	r1, #0
100025a6:	bdf0      	pop	{r4, r5, r6, r7, pc}
100025a8:	d101      	bne.n	100025ae <y64_x64+0x4a>
100025aa:	4290      	cmp	r0, r2
100025ac:	d3f7      	bcc.n	1000259e <y64_x64+0x3a>
100025ae:	1a80      	subs	r0, r0, r2
100025b0:	4199      	sbcs	r1, r3
100025b2:	3401      	adds	r4, #1
100025b4:	4299      	cmp	r1, r3
100025b6:	d3f2      	bcc.n	1000259e <y64_x64+0x3a>
100025b8:	e7f6      	b.n	100025a8 <y64_x64+0x44>
100025ba:	0000      	.short	0x0000
100025bc:	d0000000 	.word	0xd0000000
100025c0:	ffffffff 	.word	0xffffffff

100025c4 <__aeabi_double_init>:
100025c4:	2313      	movs	r3, #19
100025c6:	b570      	push	{r4, r5, r6, lr}
100025c8:	781d      	ldrb	r5, [r3, #0]
100025ca:	2d01      	cmp	r5, #1
100025cc:	d010      	beq.n	100025f0 <__aeabi_double_init+0x2c>
100025ce:	dd0b      	ble.n	100025e8 <__aeabi_double_init+0x24>
100025d0:	4824      	ldr	r0, [pc, #144]	; (10002664 <__aeabi_double_init+0xa0>)
100025d2:	f7ff fd63 	bl	1000209c <rom_data_lookup>
100025d6:	4c24      	ldr	r4, [pc, #144]	; (10002668 <__aeabi_double_init+0xa4>)
100025d8:	0001      	movs	r1, r0
100025da:	2280      	movs	r2, #128	; 0x80
100025dc:	0020      	movs	r0, r4
100025de:	f000 f937 	bl	10002850 <__wrap___aeabi_memcpy>
100025e2:	2d02      	cmp	r5, #2
100025e4:	d001      	beq.n	100025ea <__aeabi_double_init+0x26>
100025e6:	bd70      	pop	{r4, r5, r6, pc}
100025e8:	4c1f      	ldr	r4, [pc, #124]	; (10002668 <__aeabi_double_init+0xa4>)
100025ea:	4a20      	ldr	r2, [pc, #128]	; (1000266c <__aeabi_double_init+0xa8>)
100025ec:	64a2      	str	r2, [r4, #72]	; 0x48
100025ee:	e7fa      	b.n	100025e6 <__aeabi_double_init+0x22>
100025f0:	002e      	movs	r6, r5
100025f2:	4c1d      	ldr	r4, [pc, #116]	; (10002668 <__aeabi_double_init+0xa4>)
100025f4:	4a1d      	ldr	r2, [pc, #116]	; (1000266c <__aeabi_double_init+0xa8>)
100025f6:	08a3      	lsrs	r3, r4, #2
100025f8:	425b      	negs	r3, r3
100025fa:	401e      	ands	r6, r3
100025fc:	421d      	tst	r5, r3
100025fe:	d02f      	beq.n	10002660 <__aeabi_double_init+0x9c>
10002600:	0033      	movs	r3, r6
10002602:	6022      	str	r2, [r4, #0]
10002604:	2020      	movs	r0, #32
10002606:	00b1      	lsls	r1, r6, #2
10002608:	1861      	adds	r1, r4, r1
1000260a:	1b80      	subs	r0, r0, r6
1000260c:	600a      	str	r2, [r1, #0]
1000260e:	604a      	str	r2, [r1, #4]
10002610:	608a      	str	r2, [r1, #8]
10002612:	60ca      	str	r2, [r1, #12]
10002614:	610a      	str	r2, [r1, #16]
10002616:	614a      	str	r2, [r1, #20]
10002618:	618a      	str	r2, [r1, #24]
1000261a:	61ca      	str	r2, [r1, #28]
1000261c:	620a      	str	r2, [r1, #32]
1000261e:	624a      	str	r2, [r1, #36]	; 0x24
10002620:	628a      	str	r2, [r1, #40]	; 0x28
10002622:	62ca      	str	r2, [r1, #44]	; 0x2c
10002624:	630a      	str	r2, [r1, #48]	; 0x30
10002626:	634a      	str	r2, [r1, #52]	; 0x34
10002628:	638a      	str	r2, [r1, #56]	; 0x38
1000262a:	63ca      	str	r2, [r1, #60]	; 0x3c
1000262c:	640a      	str	r2, [r1, #64]	; 0x40
1000262e:	644a      	str	r2, [r1, #68]	; 0x44
10002630:	648a      	str	r2, [r1, #72]	; 0x48
10002632:	64ca      	str	r2, [r1, #76]	; 0x4c
10002634:	650a      	str	r2, [r1, #80]	; 0x50
10002636:	654a      	str	r2, [r1, #84]	; 0x54
10002638:	658a      	str	r2, [r1, #88]	; 0x58
1000263a:	65ca      	str	r2, [r1, #92]	; 0x5c
1000263c:	660a      	str	r2, [r1, #96]	; 0x60
1000263e:	664a      	str	r2, [r1, #100]	; 0x64
10002640:	668a      	str	r2, [r1, #104]	; 0x68
10002642:	66ca      	str	r2, [r1, #108]	; 0x6c
10002644:	670a      	str	r2, [r1, #112]	; 0x70
10002646:	674a      	str	r2, [r1, #116]	; 0x74
10002648:	0840      	lsrs	r0, r0, #1
1000264a:	2810      	cmp	r0, #16
1000264c:	d103      	bne.n	10002656 <__aeabi_double_init+0x92>
1000264e:	678a      	str	r2, [r1, #120]	; 0x78
10002650:	67ca      	str	r2, [r1, #124]	; 0x7c
10002652:	64a2      	str	r2, [r4, #72]	; 0x48
10002654:	e7c7      	b.n	100025e6 <__aeabi_double_init+0x22>
10002656:	331e      	adds	r3, #30
10002658:	009b      	lsls	r3, r3, #2
1000265a:	50e2      	str	r2, [r4, r3]
1000265c:	64a2      	str	r2, [r4, #72]	; 0x48
1000265e:	e7c2      	b.n	100025e6 <__aeabi_double_init+0x22>
10002660:	2300      	movs	r3, #0
10002662:	e7cf      	b.n	10002604 <__aeabi_double_init+0x40>
10002664:	00004453 	.word	0x00004453
10002668:	20000b38 	.word	0x20000b38
1000266c:	10002671 	.word	0x10002671

10002670 <double_table_shim_on_use_helper>:
10002670:	b507      	push	{r0, r1, r2, lr}
10002672:	4660      	mov	r0, ip
10002674:	8801      	ldrh	r1, [r0, #0]
10002676:	0a0a      	lsrs	r2, r1, #8
10002678:	3002      	adds	r0, #2
1000267a:	2adf      	cmp	r2, #223	; 0xdf
1000267c:	d1fa      	bne.n	10002674 <double_table_shim_on_use_helper+0x4>
1000267e:	b2c9      	uxtb	r1, r1
10002680:	0882      	lsrs	r2, r0, #2
10002682:	d304      	bcc.n	1000268e <double_table_shim_on_use_helper+0x1e>
10002684:	8802      	ldrh	r2, [r0, #0]
10002686:	8840      	ldrh	r0, [r0, #2]
10002688:	0400      	lsls	r0, r0, #16
1000268a:	4310      	orrs	r0, r2
1000268c:	e000      	b.n	10002690 <double_table_shim_on_use_helper+0x20>
1000268e:	6800      	ldr	r0, [r0, #0]
10002690:	4a01      	ldr	r2, [pc, #4]	; (10002698 <double_table_shim_on_use_helper+0x28>)
10002692:	5050      	str	r0, [r2, r1]
10002694:	9003      	str	r0, [sp, #12]
10002696:	bd07      	pop	{r0, r1, r2, pc}
10002698:	20000b38 	.word	0x20000b38

1000269c <__wrap___aeabi_lmul>:
1000269c:	4351      	muls	r1, r2
1000269e:	4343      	muls	r3, r0
100026a0:	18c9      	adds	r1, r1, r3
100026a2:	468c      	mov	ip, r1
100026a4:	0c11      	lsrs	r1, r2, #16
100026a6:	b283      	uxth	r3, r0
100026a8:	434b      	muls	r3, r1
100026aa:	b410      	push	{r4}
100026ac:	0c04      	lsrs	r4, r0, #16
100026ae:	4361      	muls	r1, r4
100026b0:	b292      	uxth	r2, r2
100026b2:	b280      	uxth	r0, r0
100026b4:	4350      	muls	r0, r2
100026b6:	4362      	muls	r2, r4
100026b8:	041c      	lsls	r4, r3, #16
100026ba:	0c1b      	lsrs	r3, r3, #16
100026bc:	1900      	adds	r0, r0, r4
100026be:	bc10      	pop	{r4}
100026c0:	4159      	adcs	r1, r3
100026c2:	0413      	lsls	r3, r2, #16
100026c4:	0c12      	lsrs	r2, r2, #16
100026c6:	18c0      	adds	r0, r0, r3
100026c8:	4151      	adcs	r1, r2
100026ca:	4461      	add	r1, ip
100026cc:	4770      	bx	lr
	...

100026d0 <__wrap___aeabi_frsub>:
100026d0:	4048      	eors	r0, r1
100026d2:	4041      	eors	r1, r0
100026d4:	4048      	eors	r0, r1

100026d6 <__wrap___aeabi_fsub>:
100026d6:	4b06      	ldr	r3, [pc, #24]	; (100026f0 <__wrap___aeabi_fmul+0x8>)
100026d8:	685b      	ldr	r3, [r3, #4]
100026da:	4718      	bx	r3

100026dc <__wrap___aeabi_fadd>:
100026dc:	4b04      	ldr	r3, [pc, #16]	; (100026f0 <__wrap___aeabi_fmul+0x8>)
100026de:	681b      	ldr	r3, [r3, #0]
100026e0:	4718      	bx	r3

100026e2 <__wrap___aeabi_fdiv>:
100026e2:	4b03      	ldr	r3, [pc, #12]	; (100026f0 <__wrap___aeabi_fmul+0x8>)
100026e4:	68db      	ldr	r3, [r3, #12]
100026e6:	4718      	bx	r3

100026e8 <__wrap___aeabi_fmul>:
100026e8:	4b01      	ldr	r3, [pc, #4]	; (100026f0 <__wrap___aeabi_fmul+0x8>)
100026ea:	689b      	ldr	r3, [r3, #8]
100026ec:	4718      	bx	r3
100026ee:	0000      	.short	0x0000
100026f0:	20000c38 	.word	0x20000c38

100026f4 <__wrap___aeabi_cfrcmple>:
100026f4:	b507      	push	{r0, r1, r2, lr}
100026f6:	4048      	eors	r0, r1
100026f8:	4041      	eors	r1, r0
100026fa:	4048      	eors	r0, r1
100026fc:	e001      	b.n	10002702 <__aeabi_cfcmple_guts>
100026fe:	46c0      	nop			; (mov r8, r8)

10002700 <__wrap___aeabi_cfcmpeq>:
10002700:	b507      	push	{r0, r1, r2, lr}

10002702 <__aeabi_cfcmple_guts>:
10002702:	0042      	lsls	r2, r0, #1
10002704:	0e12      	lsrs	r2, r2, #24
10002706:	d003      	beq.n	10002710 <__aeabi_cfcmple_guts+0xe>
10002708:	2aff      	cmp	r2, #255	; 0xff
1000270a:	d103      	bne.n	10002714 <__aeabi_cfcmple_guts+0x12>
1000270c:	0242      	lsls	r2, r0, #9
1000270e:	d818      	bhi.n	10002742 <__aeabi_cfcmple_guts+0x40>
10002710:	0dc0      	lsrs	r0, r0, #23
10002712:	05c0      	lsls	r0, r0, #23
10002714:	004a      	lsls	r2, r1, #1
10002716:	0e12      	lsrs	r2, r2, #24
10002718:	d003      	beq.n	10002722 <__aeabi_cfcmple_guts+0x20>
1000271a:	2aff      	cmp	r2, #255	; 0xff
1000271c:	d103      	bne.n	10002726 <__aeabi_cfcmple_guts+0x24>
1000271e:	024a      	lsls	r2, r1, #9
10002720:	d80f      	bhi.n	10002742 <__aeabi_cfcmple_guts+0x40>
10002722:	0dc9      	lsrs	r1, r1, #23
10002724:	05c9      	lsls	r1, r1, #23
10002726:	2201      	movs	r2, #1
10002728:	4041      	eors	r1, r0
1000272a:	d405      	bmi.n	10002738 <__aeabi_cfcmple_guts+0x36>
1000272c:	4041      	eors	r1, r0
1000272e:	d501      	bpl.n	10002734 <__aeabi_cfcmple_guts+0x32>
10002730:	4281      	cmp	r1, r0
10002732:	bd07      	pop	{r0, r1, r2, pc}
10002734:	4288      	cmp	r0, r1
10002736:	bd07      	pop	{r0, r1, r2, pc}
10002738:	4301      	orrs	r1, r0
1000273a:	1849      	adds	r1, r1, r1
1000273c:	d001      	beq.n	10002742 <__aeabi_cfcmple_guts+0x40>
1000273e:	43c0      	mvns	r0, r0
10002740:	1800      	adds	r0, r0, r0
10002742:	bd07      	pop	{r0, r1, r2, pc}

10002744 <__wrap___aeabi_fcmplt>:
10002744:	b500      	push	{lr}
10002746:	f7ff ffdb 	bl	10002700 <__wrap___aeabi_cfcmpeq>
1000274a:	4180      	sbcs	r0, r0
1000274c:	bd00      	pop	{pc}
1000274e:	46c0      	nop			; (mov r8, r8)

10002750 <__wrap___aeabi_i2f>:
10002750:	0fc1      	lsrs	r1, r0, #31
10002752:	07c9      	lsls	r1, r1, #31
10002754:	d500      	bpl.n	10002758 <__wrap___aeabi_i2f+0x8>
10002756:	4240      	negs	r0, r0
10002758:	2800      	cmp	r0, #0
1000275a:	d017      	beq.n	1000278c <__aeabi_i2f_main+0x30>

1000275c <__aeabi_i2f_main>:
1000275c:	46f4      	mov	ip, lr
1000275e:	b403      	push	{r0, r1}
10002760:	4b0b      	ldr	r3, [pc, #44]	; (10002790 <__aeabi_i2f_main+0x34>)
10002762:	681b      	ldr	r3, [r3, #0]
10002764:	4798      	blx	r3
10002766:	bc06      	pop	{r1, r2}
10002768:	4081      	lsls	r1, r0
1000276a:	389e      	subs	r0, #158	; 0x9e
1000276c:	4240      	negs	r0, r0
1000276e:	3180      	adds	r1, #128	; 0x80
10002770:	d207      	bcs.n	10002782 <__aeabi_i2f_main+0x26>
10002772:	060b      	lsls	r3, r1, #24
10002774:	d007      	beq.n	10002786 <__aeabi_i2f_main+0x2a>
10002776:	0049      	lsls	r1, r1, #1
10002778:	0a49      	lsrs	r1, r1, #9
1000277a:	05c0      	lsls	r0, r0, #23
1000277c:	4310      	orrs	r0, r2
1000277e:	4308      	orrs	r0, r1
10002780:	4760      	bx	ip
10002782:	3001      	adds	r0, #1
10002784:	e7f8      	b.n	10002778 <__aeabi_i2f_main+0x1c>
10002786:	0a49      	lsrs	r1, r1, #9
10002788:	0289      	lsls	r1, r1, #10
1000278a:	e7f5      	b.n	10002778 <__aeabi_i2f_main+0x1c>
1000278c:	4770      	bx	lr
1000278e:	0000      	.short	0x0000
10002790:	20000d38 	.word	0x20000d38

10002794 <__aeabi_float_init>:
10002794:	2313      	movs	r3, #19
10002796:	b510      	push	{r4, lr}
10002798:	4812      	ldr	r0, [pc, #72]	; (100027e4 <__aeabi_float_init+0x50>)
1000279a:	781c      	ldrb	r4, [r3, #0]
1000279c:	f7ff fc7e 	bl	1000209c <rom_data_lookup>
100027a0:	0001      	movs	r1, r0
100027a2:	2c01      	cmp	r4, #1
100027a4:	d00a      	beq.n	100027bc <__aeabi_float_init+0x28>
100027a6:	dd03      	ble.n	100027b0 <__aeabi_float_init+0x1c>
100027a8:	2280      	movs	r2, #128	; 0x80
100027aa:	480f      	ldr	r0, [pc, #60]	; (100027e8 <__aeabi_float_init+0x54>)
100027ac:	f000 f850 	bl	10002850 <__wrap___aeabi_memcpy>
100027b0:	480e      	ldr	r0, [pc, #56]	; (100027ec <__aeabi_float_init+0x58>)
100027b2:	f7ff fc6b 	bl	1000208c <rom_func_lookup>
100027b6:	4b0e      	ldr	r3, [pc, #56]	; (100027f0 <__aeabi_float_init+0x5c>)
100027b8:	6018      	str	r0, [r3, #0]
100027ba:	bd10      	pop	{r4, pc}
100027bc:	4c0a      	ldr	r4, [pc, #40]	; (100027e8 <__aeabi_float_init+0x54>)
100027be:	2254      	movs	r2, #84	; 0x54
100027c0:	0020      	movs	r0, r4
100027c2:	f000 f845 	bl	10002850 <__wrap___aeabi_memcpy>
100027c6:	4b0b      	ldr	r3, [pc, #44]	; (100027f4 <__aeabi_float_init+0x60>)
100027c8:	6563      	str	r3, [r4, #84]	; 0x54
100027ca:	65a3      	str	r3, [r4, #88]	; 0x58
100027cc:	65e3      	str	r3, [r4, #92]	; 0x5c
100027ce:	6623      	str	r3, [r4, #96]	; 0x60
100027d0:	6663      	str	r3, [r4, #100]	; 0x64
100027d2:	66a3      	str	r3, [r4, #104]	; 0x68
100027d4:	66e3      	str	r3, [r4, #108]	; 0x6c
100027d6:	6723      	str	r3, [r4, #112]	; 0x70
100027d8:	6763      	str	r3, [r4, #116]	; 0x74
100027da:	67a3      	str	r3, [r4, #120]	; 0x78
100027dc:	67e3      	str	r3, [r4, #124]	; 0x7c
100027de:	6223      	str	r3, [r4, #32]
100027e0:	61e3      	str	r3, [r4, #28]
100027e2:	e7e5      	b.n	100027b0 <__aeabi_float_init+0x1c>
100027e4:	00004653 	.word	0x00004653
100027e8:	20000c38 	.word	0x20000c38
100027ec:	0000334c 	.word	0x0000334c
100027f0:	20000d38 	.word	0x20000d38
100027f4:	100027f9 	.word	0x100027f9

100027f8 <float_table_shim_on_use_helper>:
100027f8:	b507      	push	{r0, r1, r2, lr}
100027fa:	4660      	mov	r0, ip
100027fc:	8801      	ldrh	r1, [r0, #0]
100027fe:	0a0a      	lsrs	r2, r1, #8
10002800:	3002      	adds	r0, #2
10002802:	2adf      	cmp	r2, #223	; 0xdf
10002804:	d1fa      	bne.n	100027fc <float_table_shim_on_use_helper+0x4>
10002806:	b2c9      	uxtb	r1, r1
10002808:	0882      	lsrs	r2, r0, #2
1000280a:	d304      	bcc.n	10002816 <float_table_shim_on_use_helper+0x1e>
1000280c:	8802      	ldrh	r2, [r0, #0]
1000280e:	8840      	ldrh	r0, [r0, #2]
10002810:	0400      	lsls	r0, r0, #16
10002812:	4310      	orrs	r0, r2
10002814:	e000      	b.n	10002818 <float_table_shim_on_use_helper+0x20>
10002816:	6800      	ldr	r0, [r0, #0]
10002818:	4a01      	ldr	r2, [pc, #4]	; (10002820 <float_table_shim_on_use_helper+0x28>)
1000281a:	5050      	str	r0, [r2, r1]
1000281c:	9003      	str	r0, [sp, #12]
1000281e:	bd07      	pop	{r0, r1, r2, pc}
10002820:	20000c38 	.word	0x20000c38

10002824 <__wrap_malloc>:
10002824:	b510      	push	{r4, lr}
10002826:	f000 f9d9 	bl	10002bdc <malloc>
1000282a:	bd10      	pop	{r4, pc}

1000282c <__wrap_calloc>:
1000282c:	b510      	push	{r4, lr}
1000282e:	f000 f99b 	bl	10002b68 <calloc>
10002832:	bd10      	pop	{r4, pc}

10002834 <__aeabi_mem_init>:
10002834:	4801      	ldr	r0, [pc, #4]	; (1000283c <__aeabi_mem_init+0x8>)
10002836:	2104      	movs	r1, #4
10002838:	4b01      	ldr	r3, [pc, #4]	; (10002840 <__aeabi_mem_init+0xc>)
1000283a:	4718      	bx	r3
1000283c:	200001e0 	.word	0x200001e0
10002840:	100020ad 	.word	0x100020ad

10002844 <__wrap_memset>:
10002844:	4b01      	ldr	r3, [pc, #4]	; (1000284c <__wrap_memset+0x8>)
10002846:	681b      	ldr	r3, [r3, #0]
10002848:	4718      	bx	r3
1000284a:	0000      	.short	0x0000
1000284c:	200001e0 	.word	0x200001e0

10002850 <__wrap___aeabi_memcpy>:
10002850:	4b01      	ldr	r3, [pc, #4]	; (10002858 <__wrap___aeabi_memcpy+0x8>)
10002852:	685b      	ldr	r3, [r3, #4]
10002854:	4718      	bx	r3
10002856:	0000      	.short	0x0000
10002858:	200001e0 	.word	0x200001e0

1000285c <stdio_out_chars_crlf.part.0>:
1000285c:	b5f8      	push	{r3, r4, r5, r6, r7, lr}
1000285e:	4647      	mov	r7, r8
10002860:	46ce      	mov	lr, r9
10002862:	000d      	movs	r5, r1
10002864:	b580      	push	{r7, lr}
10002866:	0016      	movs	r6, r2
10002868:	0007      	movs	r7, r0
1000286a:	2a00      	cmp	r2, #0
1000286c:	dd20      	ble.n	100028b0 <stdio_out_chars_crlf.part.0+0x54>
1000286e:	1e4b      	subs	r3, r1, #1
10002870:	4698      	mov	r8, r3
10002872:	4b1a      	ldr	r3, [pc, #104]	; (100028dc <stdio_out_chars_crlf.part.0+0x80>)
10002874:	2400      	movs	r4, #0
10002876:	2000      	movs	r0, #0
10002878:	4699      	mov	r9, r3
1000287a:	2c00      	cmp	r4, #0
1000287c:	d02b      	beq.n	100028d6 <stdio_out_chars_crlf.part.0+0x7a>
1000287e:	4643      	mov	r3, r8
10002880:	5d1b      	ldrb	r3, [r3, r4]
10002882:	3b0d      	subs	r3, #13
10002884:	425a      	negs	r2, r3
10002886:	4153      	adcs	r3, r2
10002888:	b2db      	uxtb	r3, r3
1000288a:	5d2a      	ldrb	r2, [r5, r4]
1000288c:	2a0a      	cmp	r2, #10
1000288e:	d013      	beq.n	100028b8 <stdio_out_chars_crlf.part.0+0x5c>
10002890:	3401      	adds	r4, #1
10002892:	42a6      	cmp	r6, r4
10002894:	dcf1      	bgt.n	1000287a <stdio_out_chars_crlf.part.0+0x1e>
10002896:	4286      	cmp	r6, r0
10002898:	dd03      	ble.n	100028a2 <stdio_out_chars_crlf.part.0+0x46>
1000289a:	1a31      	subs	r1, r6, r0
1000289c:	683b      	ldr	r3, [r7, #0]
1000289e:	1828      	adds	r0, r5, r0
100028a0:	4798      	blx	r3
100028a2:	19ad      	adds	r5, r5, r6
100028a4:	3d01      	subs	r5, #1
100028a6:	782b      	ldrb	r3, [r5, #0]
100028a8:	3b0d      	subs	r3, #13
100028aa:	425a      	negs	r2, r3
100028ac:	4153      	adcs	r3, r2
100028ae:	743b      	strb	r3, [r7, #16]
100028b0:	bc0c      	pop	{r2, r3}
100028b2:	4690      	mov	r8, r2
100028b4:	4699      	mov	r9, r3
100028b6:	bdf8      	pop	{r3, r4, r5, r6, r7, pc}
100028b8:	2b00      	cmp	r3, #0
100028ba:	d1e9      	bne.n	10002890 <stdio_out_chars_crlf.part.0+0x34>
100028bc:	42a0      	cmp	r0, r4
100028be:	da03      	bge.n	100028c8 <stdio_out_chars_crlf.part.0+0x6c>
100028c0:	1a21      	subs	r1, r4, r0
100028c2:	683b      	ldr	r3, [r7, #0]
100028c4:	1828      	adds	r0, r5, r0
100028c6:	4798      	blx	r3
100028c8:	4648      	mov	r0, r9
100028ca:	2102      	movs	r1, #2
100028cc:	683b      	ldr	r3, [r7, #0]
100028ce:	3401      	adds	r4, #1
100028d0:	4798      	blx	r3
100028d2:	0020      	movs	r0, r4
100028d4:	e7dd      	b.n	10002892 <stdio_out_chars_crlf.part.0+0x36>
100028d6:	7c3b      	ldrb	r3, [r7, #16]
100028d8:	e7d7      	b.n	1000288a <stdio_out_chars_crlf.part.0+0x2e>
100028da:	46c0      	nop			; (mov r8, r8)
100028dc:	100e8d68 	.word	0x100e8d68

100028e0 <stdio_put_string>:
100028e0:	b5f0      	push	{r4, r5, r6, r7, lr}
100028e2:	4657      	mov	r7, sl
100028e4:	4645      	mov	r5, r8
100028e6:	46de      	mov	lr, fp
100028e8:	464e      	mov	r6, r9
100028ea:	23d0      	movs	r3, #208	; 0xd0
100028ec:	b5e0      	push	{r5, r6, r7, lr}
100028ee:	061b      	lsls	r3, r3, #24
100028f0:	681c      	ldr	r4, [r3, #0]
100028f2:	4b37      	ldr	r3, [pc, #220]	; (100029d0 <stdio_put_string+0xf0>)
100028f4:	b083      	sub	sp, #12
100028f6:	0007      	movs	r7, r0
100028f8:	000d      	movs	r5, r1
100028fa:	0018      	movs	r0, r3
100028fc:	a901      	add	r1, sp, #4
100028fe:	4690      	mov	r8, r2
10002900:	469a      	mov	sl, r3
10002902:	f000 fe0d 	bl	10003520 <__mutex_try_enter_veneer>
10002906:	4681      	mov	r9, r0
10002908:	2800      	cmp	r0, #0
1000290a:	d107      	bne.n	1000291c <stdio_put_string+0x3c>
1000290c:	9b01      	ldr	r3, [sp, #4]
1000290e:	429c      	cmp	r4, r3
10002910:	d004      	beq.n	1000291c <stdio_put_string+0x3c>
10002912:	4650      	mov	r0, sl
10002914:	f000 fe0c 	bl	10003530 <__mutex_enter_blocking_veneer>
10002918:	2301      	movs	r3, #1
1000291a:	4699      	mov	r9, r3
1000291c:	1c6b      	adds	r3, r5, #1
1000291e:	d103      	bne.n	10002928 <stdio_put_string+0x48>
10002920:	0038      	movs	r0, r7
10002922:	f000 fc6f 	bl	10003204 <strlen>
10002926:	0005      	movs	r5, r0
10002928:	4b2a      	ldr	r3, [pc, #168]	; (100029d4 <stdio_put_string+0xf4>)
1000292a:	681c      	ldr	r4, [r3, #0]
1000292c:	2c00      	cmp	r4, #0
1000292e:	d02f      	beq.n	10002990 <stdio_put_string+0xb0>
10002930:	230a      	movs	r3, #10
10002932:	4e29      	ldr	r6, [pc, #164]	; (100029d8 <stdio_put_string+0xf8>)
10002934:	469b      	mov	fp, r3
10002936:	e002      	b.n	1000293e <stdio_put_string+0x5e>
10002938:	68e4      	ldr	r4, [r4, #12]
1000293a:	2c00      	cmp	r4, #0
1000293c:	d028      	beq.n	10002990 <stdio_put_string+0xb0>
1000293e:	6822      	ldr	r2, [r4, #0]
10002940:	2a00      	cmp	r2, #0
10002942:	d0f9      	beq.n	10002938 <stdio_put_string+0x58>
10002944:	6833      	ldr	r3, [r6, #0]
10002946:	2b00      	cmp	r3, #0
10002948:	d001      	beq.n	1000294e <stdio_put_string+0x6e>
1000294a:	42a3      	cmp	r3, r4
1000294c:	d1f4      	bne.n	10002938 <stdio_put_string+0x58>
1000294e:	7c63      	ldrb	r3, [r4, #17]
10002950:	2b00      	cmp	r3, #0
10002952:	d02a      	beq.n	100029aa <stdio_put_string+0xca>
10002954:	002a      	movs	r2, r5
10002956:	0039      	movs	r1, r7
10002958:	0020      	movs	r0, r4
1000295a:	f7ff ff7f 	bl	1000285c <stdio_out_chars_crlf.part.0>
1000295e:	4643      	mov	r3, r8
10002960:	2b00      	cmp	r3, #0
10002962:	d0e9      	beq.n	10002938 <stdio_put_string+0x58>
10002964:	466b      	mov	r3, sp
10002966:	465a      	mov	r2, fp
10002968:	711a      	strb	r2, [r3, #4]
1000296a:	7c63      	ldrb	r3, [r4, #17]
1000296c:	2b00      	cmp	r3, #0
1000296e:	d020      	beq.n	100029b2 <stdio_put_string+0xd2>
10002970:	7c23      	ldrb	r3, [r4, #16]
10002972:	2b00      	cmp	r3, #0
10002974:	d026      	beq.n	100029c4 <stdio_put_string+0xe4>
10002976:	2101      	movs	r1, #1
10002978:	6823      	ldr	r3, [r4, #0]
1000297a:	a801      	add	r0, sp, #4
1000297c:	4798      	blx	r3
1000297e:	466b      	mov	r3, sp
10002980:	791b      	ldrb	r3, [r3, #4]
10002982:	3b0d      	subs	r3, #13
10002984:	425a      	negs	r2, r3
10002986:	4153      	adcs	r3, r2
10002988:	7423      	strb	r3, [r4, #16]
1000298a:	68e4      	ldr	r4, [r4, #12]
1000298c:	2c00      	cmp	r4, #0
1000298e:	d1d6      	bne.n	1000293e <stdio_put_string+0x5e>
10002990:	464b      	mov	r3, r9
10002992:	2b00      	cmp	r3, #0
10002994:	d112      	bne.n	100029bc <stdio_put_string+0xdc>
10002996:	1e68      	subs	r0, r5, #1
10002998:	4185      	sbcs	r5, r0
1000299a:	b2e8      	uxtb	r0, r5
1000299c:	b003      	add	sp, #12
1000299e:	bc3c      	pop	{r2, r3, r4, r5}
100029a0:	4690      	mov	r8, r2
100029a2:	4699      	mov	r9, r3
100029a4:	46a2      	mov	sl, r4
100029a6:	46ab      	mov	fp, r5
100029a8:	bdf0      	pop	{r4, r5, r6, r7, pc}
100029aa:	0029      	movs	r1, r5
100029ac:	0038      	movs	r0, r7
100029ae:	4790      	blx	r2
100029b0:	e7d5      	b.n	1000295e <stdio_put_string+0x7e>
100029b2:	2101      	movs	r1, #1
100029b4:	6823      	ldr	r3, [r4, #0]
100029b6:	a801      	add	r0, sp, #4
100029b8:	4798      	blx	r3
100029ba:	e7bd      	b.n	10002938 <stdio_put_string+0x58>
100029bc:	4650      	mov	r0, sl
100029be:	f000 fd97 	bl	100034f0 <__mutex_exit_veneer>
100029c2:	e7e8      	b.n	10002996 <stdio_put_string+0xb6>
100029c4:	2102      	movs	r1, #2
100029c6:	4805      	ldr	r0, [pc, #20]	; (100029dc <stdio_put_string+0xfc>)
100029c8:	6823      	ldr	r3, [r4, #0]
100029ca:	4798      	blx	r3
100029cc:	e7d7      	b.n	1000297e <stdio_put_string+0x9e>
100029ce:	46c0      	nop			; (mov r8, r8)
100029d0:	20000a48 	.word	0x20000a48
100029d4:	20000af0 	.word	0x20000af0
100029d8:	20000af4 	.word	0x20000af4
100029dc:	100e8d68 	.word	0x100e8d68

100029e0 <__wrap_putchar>:
100029e0:	b510      	push	{r4, lr}
100029e2:	b082      	sub	sp, #8
100029e4:	466b      	mov	r3, sp
100029e6:	0004      	movs	r4, r0
100029e8:	2200      	movs	r2, #0
100029ea:	1dd8      	adds	r0, r3, #7
100029ec:	2101      	movs	r1, #1
100029ee:	7004      	strb	r4, [r0, #0]
100029f0:	f7ff ff76 	bl	100028e0 <stdio_put_string>
100029f4:	0020      	movs	r0, r4
100029f6:	b002      	add	sp, #8
100029f8:	bd10      	pop	{r4, pc}
100029fa:	46c0      	nop			; (mov r8, r8)

100029fc <__wrap_puts>:
100029fc:	b570      	push	{r4, r5, r6, lr}
100029fe:	0004      	movs	r4, r0
10002a00:	f000 fc00 	bl	10003204 <strlen>
10002a04:	2201      	movs	r2, #1
10002a06:	0001      	movs	r1, r0
10002a08:	0005      	movs	r5, r0
10002a0a:	0020      	movs	r0, r4
10002a0c:	f7ff ff68 	bl	100028e0 <stdio_put_string>
10002a10:	4b08      	ldr	r3, [pc, #32]	; (10002a34 <__wrap_puts+0x38>)
10002a12:	681c      	ldr	r4, [r3, #0]
10002a14:	2c00      	cmp	r4, #0
10002a16:	d006      	beq.n	10002a26 <__wrap_puts+0x2a>
10002a18:	6863      	ldr	r3, [r4, #4]
10002a1a:	2b00      	cmp	r3, #0
10002a1c:	d005      	beq.n	10002a2a <__wrap_puts+0x2e>
10002a1e:	4798      	blx	r3
10002a20:	68e4      	ldr	r4, [r4, #12]
10002a22:	2c00      	cmp	r4, #0
10002a24:	d1f8      	bne.n	10002a18 <__wrap_puts+0x1c>
10002a26:	0028      	movs	r0, r5
10002a28:	bd70      	pop	{r4, r5, r6, pc}
10002a2a:	68e4      	ldr	r4, [r4, #12]
10002a2c:	2c00      	cmp	r4, #0
10002a2e:	d1f3      	bne.n	10002a18 <__wrap_puts+0x1c>
10002a30:	e7f9      	b.n	10002a26 <__wrap_puts+0x2a>
10002a32:	46c0      	nop			; (mov r8, r8)
10002a34:	20000af0 	.word	0x20000af0

10002a38 <stdio_set_driver_enabled>:
10002a38:	4a0d      	ldr	r2, [pc, #52]	; (10002a70 <stdio_set_driver_enabled+0x38>)
10002a3a:	6813      	ldr	r3, [r2, #0]
10002a3c:	2b00      	cmp	r3, #0
10002a3e:	d013      	beq.n	10002a68 <stdio_set_driver_enabled+0x30>
10002a40:	4283      	cmp	r3, r0
10002a42:	d102      	bne.n	10002a4a <stdio_set_driver_enabled+0x12>
10002a44:	e009      	b.n	10002a5a <stdio_set_driver_enabled+0x22>
10002a46:	4298      	cmp	r0, r3
10002a48:	d008      	beq.n	10002a5c <stdio_set_driver_enabled+0x24>
10002a4a:	001a      	movs	r2, r3
10002a4c:	68db      	ldr	r3, [r3, #12]
10002a4e:	2b00      	cmp	r3, #0
10002a50:	d1f9      	bne.n	10002a46 <stdio_set_driver_enabled+0xe>
10002a52:	2900      	cmp	r1, #0
10002a54:	d000      	beq.n	10002a58 <stdio_set_driver_enabled+0x20>
10002a56:	60d0      	str	r0, [r2, #12]
10002a58:	4770      	bx	lr
10002a5a:	001a      	movs	r2, r3
10002a5c:	2900      	cmp	r1, #0
10002a5e:	d1fb      	bne.n	10002a58 <stdio_set_driver_enabled+0x20>
10002a60:	68db      	ldr	r3, [r3, #12]
10002a62:	60d3      	str	r3, [r2, #12]
10002a64:	60c1      	str	r1, [r0, #12]
10002a66:	e7f7      	b.n	10002a58 <stdio_set_driver_enabled+0x20>
10002a68:	2900      	cmp	r1, #0
10002a6a:	d0f5      	beq.n	10002a58 <stdio_set_driver_enabled+0x20>
10002a6c:	6010      	str	r0, [r2, #0]
10002a6e:	e7f3      	b.n	10002a58 <stdio_set_driver_enabled+0x20>
10002a70:	20000af0 	.word	0x20000af0

10002a74 <stdio_init_all>:
10002a74:	b510      	push	{r4, lr}
10002a76:	f000 f83b 	bl	10002af0 <stdio_uart_init>
10002a7a:	bd10      	pop	{r4, pc}

10002a7c <stdio_uart_out_chars>:
10002a7c:	b5f0      	push	{r4, r5, r6, r7, lr}
10002a7e:	2900      	cmp	r1, #0
10002a80:	d010      	beq.n	10002aa4 <stdio_uart_out_chars+0x28>
10002a82:	1845      	adds	r5, r0, r1
10002a84:	270d      	movs	r7, #13
10002a86:	2120      	movs	r1, #32
10002a88:	4b09      	ldr	r3, [pc, #36]	; (10002ab0 <stdio_uart_out_chars+0x34>)
10002a8a:	4a0a      	ldr	r2, [pc, #40]	; (10002ab4 <stdio_uart_out_chars+0x38>)
10002a8c:	2600      	movs	r6, #0
10002a8e:	5f9e      	ldrsh	r6, [r3, r6]
10002a90:	7804      	ldrb	r4, [r0, #0]
10002a92:	42a6      	cmp	r6, r4
10002a94:	d007      	beq.n	10002aa6 <stdio_uart_out_chars+0x2a>
10002a96:	6993      	ldr	r3, [r2, #24]
10002a98:	4219      	tst	r1, r3
10002a9a:	d1fc      	bne.n	10002a96 <stdio_uart_out_chars+0x1a>
10002a9c:	3001      	adds	r0, #1
10002a9e:	6014      	str	r4, [r2, #0]
10002aa0:	42a8      	cmp	r0, r5
10002aa2:	d1f5      	bne.n	10002a90 <stdio_uart_out_chars+0x14>
10002aa4:	bdf0      	pop	{r4, r5, r6, r7, pc}
10002aa6:	6993      	ldr	r3, [r2, #24]
10002aa8:	4219      	tst	r1, r3
10002aaa:	d1fc      	bne.n	10002aa6 <stdio_uart_out_chars+0x2a>
10002aac:	6017      	str	r7, [r2, #0]
10002aae:	e7f2      	b.n	10002a96 <stdio_uart_out_chars+0x1a>
10002ab0:	20000b34 	.word	0x20000b34
10002ab4:	40034000 	.word	0x40034000

10002ab8 <stdio_uart_in_chars>:
10002ab8:	b530      	push	{r4, r5, lr}
10002aba:	0005      	movs	r5, r0
10002abc:	2000      	movs	r0, #0
10002abe:	2900      	cmp	r1, #0
10002ac0:	dd10      	ble.n	10002ae4 <stdio_uart_in_chars+0x2c>
10002ac2:	2410      	movs	r4, #16
10002ac4:	4a09      	ldr	r2, [pc, #36]	; (10002aec <stdio_uart_in_chars+0x34>)
10002ac6:	3d01      	subs	r5, #1
10002ac8:	6993      	ldr	r3, [r2, #24]
10002aca:	421c      	tst	r4, r3
10002acc:	d108      	bne.n	10002ae0 <stdio_uart_in_chars+0x28>
10002ace:	3001      	adds	r0, #1
10002ad0:	6993      	ldr	r3, [r2, #24]
10002ad2:	421c      	tst	r4, r3
10002ad4:	d1fc      	bne.n	10002ad0 <stdio_uart_in_chars+0x18>
10002ad6:	6813      	ldr	r3, [r2, #0]
10002ad8:	542b      	strb	r3, [r5, r0]
10002ada:	4281      	cmp	r1, r0
10002adc:	d1f4      	bne.n	10002ac8 <stdio_uart_in_chars+0x10>
10002ade:	bd30      	pop	{r4, r5, pc}
10002ae0:	2800      	cmp	r0, #0
10002ae2:	d1fc      	bne.n	10002ade <stdio_uart_in_chars+0x26>
10002ae4:	2003      	movs	r0, #3
10002ae6:	4240      	negs	r0, r0
10002ae8:	e7f9      	b.n	10002ade <stdio_uart_in_chars+0x26>
10002aea:	46c0      	nop			; (mov r8, r8)
10002aec:	40034000 	.word	0x40034000

10002af0 <stdio_uart_init>:
10002af0:	21e1      	movs	r1, #225	; 0xe1
10002af2:	b510      	push	{r4, lr}
10002af4:	4b0a      	ldr	r3, [pc, #40]	; (10002b20 <stdio_uart_init+0x30>)
10002af6:	0249      	lsls	r1, r1, #9
10002af8:	781b      	ldrb	r3, [r3, #0]
10002afa:	4b0a      	ldr	r3, [pc, #40]	; (10002b24 <stdio_uart_init+0x34>)
10002afc:	480a      	ldr	r0, [pc, #40]	; (10002b28 <stdio_uart_init+0x38>)
10002afe:	781b      	ldrb	r3, [r3, #0]
10002b00:	f7fd ff92 	bl	10000a28 <uart_init>
10002b04:	2102      	movs	r1, #2
10002b06:	2000      	movs	r0, #0
10002b08:	f7fd feda 	bl	100008c0 <gpio_set_function>
10002b0c:	2102      	movs	r1, #2
10002b0e:	2001      	movs	r0, #1
10002b10:	f7fd fed6 	bl	100008c0 <gpio_set_function>
10002b14:	2101      	movs	r1, #1
10002b16:	4805      	ldr	r0, [pc, #20]	; (10002b2c <stdio_uart_init+0x3c>)
10002b18:	f7ff ff8e 	bl	10002a38 <stdio_set_driver_enabled>
10002b1c:	bd10      	pop	{r4, pc}
10002b1e:	46c0      	nop			; (mov r8, r8)
10002b20:	100e8dc8 	.word	0x100e8dc8
10002b24:	100e8dcc 	.word	0x100e8dcc
10002b28:	40034000 	.word	0x40034000
10002b2c:	200001f0 	.word	0x200001f0

10002b30 <adc_init>:
10002b30:	2301      	movs	r3, #1
10002b32:	2101      	movs	r1, #1
10002b34:	4a08      	ldr	r2, [pc, #32]	; (10002b58 <adc_init+0x28>)
10002b36:	6013      	str	r3, [r2, #0]
10002b38:	4a08      	ldr	r2, [pc, #32]	; (10002b5c <adc_init+0x2c>)
10002b3a:	6013      	str	r3, [r2, #0]
10002b3c:	4a08      	ldr	r2, [pc, #32]	; (10002b60 <adc_init+0x30>)
10002b3e:	0008      	movs	r0, r1
10002b40:	6893      	ldr	r3, [r2, #8]
10002b42:	4398      	bics	r0, r3
10002b44:	d1fb      	bne.n	10002b3e <adc_init+0xe>
10002b46:	4a07      	ldr	r2, [pc, #28]	; (10002b64 <adc_init+0x34>)
10002b48:	6011      	str	r1, [r2, #0]
10002b4a:	2180      	movs	r1, #128	; 0x80
10002b4c:	0049      	lsls	r1, r1, #1
10002b4e:	6813      	ldr	r3, [r2, #0]
10002b50:	420b      	tst	r3, r1
10002b52:	d0fc      	beq.n	10002b4e <adc_init+0x1e>
10002b54:	4770      	bx	lr
10002b56:	46c0      	nop			; (mov r8, r8)
10002b58:	4000e000 	.word	0x4000e000
10002b5c:	4000f000 	.word	0x4000f000
10002b60:	4000c000 	.word	0x4000c000
10002b64:	4004c000 	.word	0x4004c000

10002b68 <calloc>:
10002b68:	b510      	push	{r4, lr}
10002b6a:	4b04      	ldr	r3, [pc, #16]	; (10002b7c <calloc+0x14>)
10002b6c:	000a      	movs	r2, r1
10002b6e:	681b      	ldr	r3, [r3, #0]
10002b70:	0001      	movs	r1, r0
10002b72:	0018      	movs	r0, r3
10002b74:	f000 f804 	bl	10002b80 <_calloc_r>
10002b78:	bd10      	pop	{r4, pc}
10002b7a:	46c0      	nop			; (mov r8, r8)
10002b7c:	20000208 	.word	0x20000208

10002b80 <_calloc_r>:
10002b80:	b510      	push	{r4, lr}
10002b82:	4351      	muls	r1, r2
10002b84:	f000 f83e 	bl	10002c04 <_malloc_r>
10002b88:	1e04      	subs	r4, r0, #0
10002b8a:	d00e      	beq.n	10002baa <_calloc_r+0x2a>
10002b8c:	0003      	movs	r3, r0
10002b8e:	3b08      	subs	r3, #8
10002b90:	685a      	ldr	r2, [r3, #4]
10002b92:	2303      	movs	r3, #3
10002b94:	439a      	bics	r2, r3
10002b96:	3a04      	subs	r2, #4
10002b98:	2a24      	cmp	r2, #36	; 0x24
10002b9a:	d815      	bhi.n	10002bc8 <_calloc_r+0x48>
10002b9c:	0003      	movs	r3, r0
10002b9e:	2a13      	cmp	r2, #19
10002ba0:	d805      	bhi.n	10002bae <_calloc_r+0x2e>
10002ba2:	2200      	movs	r2, #0
10002ba4:	601a      	str	r2, [r3, #0]
10002ba6:	605a      	str	r2, [r3, #4]
10002ba8:	609a      	str	r2, [r3, #8]
10002baa:	0020      	movs	r0, r4
10002bac:	bd10      	pop	{r4, pc}
10002bae:	2100      	movs	r1, #0
10002bb0:	3308      	adds	r3, #8
10002bb2:	6001      	str	r1, [r0, #0]
10002bb4:	6041      	str	r1, [r0, #4]
10002bb6:	2a1b      	cmp	r2, #27
10002bb8:	d9f3      	bls.n	10002ba2 <_calloc_r+0x22>
10002bba:	6081      	str	r1, [r0, #8]
10002bbc:	60c1      	str	r1, [r0, #12]
10002bbe:	2a24      	cmp	r2, #36	; 0x24
10002bc0:	d006      	beq.n	10002bd0 <_calloc_r+0x50>
10002bc2:	0003      	movs	r3, r0
10002bc4:	3310      	adds	r3, #16
10002bc6:	e7ec      	b.n	10002ba2 <_calloc_r+0x22>
10002bc8:	2100      	movs	r1, #0
10002bca:	f7ff fe3b 	bl	10002844 <__wrap_memset>
10002bce:	e7ec      	b.n	10002baa <_calloc_r+0x2a>
10002bd0:	0003      	movs	r3, r0
10002bd2:	6101      	str	r1, [r0, #16]
10002bd4:	3318      	adds	r3, #24
10002bd6:	6141      	str	r1, [r0, #20]
10002bd8:	e7e3      	b.n	10002ba2 <_calloc_r+0x22>
10002bda:	46c0      	nop			; (mov r8, r8)

10002bdc <malloc>:
10002bdc:	b510      	push	{r4, lr}
10002bde:	4b03      	ldr	r3, [pc, #12]	; (10002bec <malloc+0x10>)
10002be0:	0001      	movs	r1, r0
10002be2:	6818      	ldr	r0, [r3, #0]
10002be4:	f000 f80e 	bl	10002c04 <_malloc_r>
10002be8:	bd10      	pop	{r4, pc}
10002bea:	46c0      	nop			; (mov r8, r8)
10002bec:	20000208 	.word	0x20000208

10002bf0 <free>:
10002bf0:	b510      	push	{r4, lr}
10002bf2:	4b03      	ldr	r3, [pc, #12]	; (10002c00 <free+0x10>)
10002bf4:	0001      	movs	r1, r0
10002bf6:	6818      	ldr	r0, [r3, #0]
10002bf8:	f000 fb88 	bl	1000330c <_free_r>
10002bfc:	bd10      	pop	{r4, pc}
10002bfe:	46c0      	nop			; (mov r8, r8)
10002c00:	20000208 	.word	0x20000208

10002c04 <_malloc_r>:
10002c04:	b5f0      	push	{r4, r5, r6, r7, lr}
10002c06:	4657      	mov	r7, sl
10002c08:	4645      	mov	r5, r8
10002c0a:	46de      	mov	lr, fp
10002c0c:	464e      	mov	r6, r9
10002c0e:	b5e0      	push	{r5, r6, r7, lr}
10002c10:	000d      	movs	r5, r1
10002c12:	350b      	adds	r5, #11
10002c14:	b083      	sub	sp, #12
10002c16:	0007      	movs	r7, r0
10002c18:	2d16      	cmp	r5, #22
10002c1a:	d822      	bhi.n	10002c62 <_malloc_r+0x5e>
10002c1c:	2910      	cmp	r1, #16
10002c1e:	d900      	bls.n	10002c22 <_malloc_r+0x1e>
10002c20:	e0bb      	b.n	10002d9a <_malloc_r+0x196>
10002c22:	f000 fab5 	bl	10003190 <__malloc_lock>
10002c26:	2510      	movs	r5, #16
10002c28:	2318      	movs	r3, #24
10002c2a:	2002      	movs	r0, #2
10002c2c:	4ed1      	ldr	r6, [pc, #836]	; (10002f74 <_malloc_r+0x370>)
10002c2e:	18f3      	adds	r3, r6, r3
10002c30:	001a      	movs	r2, r3
10002c32:	685c      	ldr	r4, [r3, #4]
10002c34:	3a08      	subs	r2, #8
10002c36:	4294      	cmp	r4, r2
10002c38:	d100      	bne.n	10002c3c <_malloc_r+0x38>
10002c3a:	e0be      	b.n	10002dba <_malloc_r+0x1b6>
10002c3c:	2303      	movs	r3, #3
10002c3e:	6862      	ldr	r2, [r4, #4]
10002c40:	439a      	bics	r2, r3
10002c42:	0013      	movs	r3, r2
10002c44:	68e2      	ldr	r2, [r4, #12]
10002c46:	68a1      	ldr	r1, [r4, #8]
10002c48:	60ca      	str	r2, [r1, #12]
10002c4a:	6091      	str	r1, [r2, #8]
10002c4c:	2201      	movs	r2, #1
10002c4e:	18e3      	adds	r3, r4, r3
10002c50:	6859      	ldr	r1, [r3, #4]
10002c52:	0038      	movs	r0, r7
10002c54:	430a      	orrs	r2, r1
10002c56:	605a      	str	r2, [r3, #4]
10002c58:	f000 fa9c 	bl	10003194 <__malloc_unlock>
10002c5c:	0020      	movs	r0, r4
10002c5e:	3008      	adds	r0, #8
10002c60:	e09e      	b.n	10002da0 <_malloc_r+0x19c>
10002c62:	2307      	movs	r3, #7
10002c64:	439d      	bics	r5, r3
10002c66:	d500      	bpl.n	10002c6a <_malloc_r+0x66>
10002c68:	e097      	b.n	10002d9a <_malloc_r+0x196>
10002c6a:	42a9      	cmp	r1, r5
10002c6c:	d900      	bls.n	10002c70 <_malloc_r+0x6c>
10002c6e:	e094      	b.n	10002d9a <_malloc_r+0x196>
10002c70:	f000 fa8e 	bl	10003190 <__malloc_lock>
10002c74:	23f8      	movs	r3, #248	; 0xf8
10002c76:	33ff      	adds	r3, #255	; 0xff
10002c78:	429d      	cmp	r5, r3
10002c7a:	d800      	bhi.n	10002c7e <_malloc_r+0x7a>
10002c7c:	e1ad      	b.n	10002fda <_malloc_r+0x3d6>
10002c7e:	0a68      	lsrs	r0, r5, #9
10002c80:	d100      	bne.n	10002c84 <_malloc_r+0x80>
10002c82:	e094      	b.n	10002dae <_malloc_r+0x1aa>
10002c84:	2804      	cmp	r0, #4
10002c86:	d900      	bls.n	10002c8a <_malloc_r+0x86>
10002c88:	e180      	b.n	10002f8c <_malloc_r+0x388>
10002c8a:	2338      	movs	r3, #56	; 0x38
10002c8c:	4698      	mov	r8, r3
10002c8e:	09a8      	lsrs	r0, r5, #6
10002c90:	4480      	add	r8, r0
10002c92:	3039      	adds	r0, #57	; 0x39
10002c94:	00c1      	lsls	r1, r0, #3
10002c96:	4eb7      	ldr	r6, [pc, #732]	; (10002f74 <_malloc_r+0x370>)
10002c98:	1871      	adds	r1, r6, r1
10002c9a:	3908      	subs	r1, #8
10002c9c:	68cc      	ldr	r4, [r1, #12]
10002c9e:	42a1      	cmp	r1, r4
10002ca0:	d018      	beq.n	10002cd4 <_malloc_r+0xd0>
10002ca2:	2303      	movs	r3, #3
10002ca4:	6862      	ldr	r2, [r4, #4]
10002ca6:	439a      	bics	r2, r3
10002ca8:	0013      	movs	r3, r2
10002caa:	1b52      	subs	r2, r2, r5
10002cac:	2a0f      	cmp	r2, #15
10002cae:	dd00      	ble.n	10002cb2 <_malloc_r+0xae>
10002cb0:	e136      	b.n	10002f20 <_malloc_r+0x31c>
10002cb2:	2a00      	cmp	r2, #0
10002cb4:	dac6      	bge.n	10002c44 <_malloc_r+0x40>
10002cb6:	2303      	movs	r3, #3
10002cb8:	469c      	mov	ip, r3
10002cba:	e008      	b.n	10002cce <_malloc_r+0xca>
10002cbc:	4662      	mov	r2, ip
10002cbe:	6863      	ldr	r3, [r4, #4]
10002cc0:	4393      	bics	r3, r2
10002cc2:	1b5a      	subs	r2, r3, r5
10002cc4:	2a0f      	cmp	r2, #15
10002cc6:	dd00      	ble.n	10002cca <_malloc_r+0xc6>
10002cc8:	e12a      	b.n	10002f20 <_malloc_r+0x31c>
10002cca:	2a00      	cmp	r2, #0
10002ccc:	daba      	bge.n	10002c44 <_malloc_r+0x40>
10002cce:	68e4      	ldr	r4, [r4, #12]
10002cd0:	42a1      	cmp	r1, r4
10002cd2:	d1f3      	bne.n	10002cbc <_malloc_r+0xb8>
10002cd4:	0032      	movs	r2, r6
10002cd6:	6934      	ldr	r4, [r6, #16]
10002cd8:	3208      	adds	r2, #8
10002cda:	4294      	cmp	r4, r2
10002cdc:	d100      	bne.n	10002ce0 <_malloc_r+0xdc>
10002cde:	e077      	b.n	10002dd0 <_malloc_r+0x1cc>
10002ce0:	2303      	movs	r3, #3
10002ce2:	6861      	ldr	r1, [r4, #4]
10002ce4:	4399      	bics	r1, r3
10002ce6:	4689      	mov	r9, r1
10002ce8:	000b      	movs	r3, r1
10002cea:	1b49      	subs	r1, r1, r5
10002cec:	290f      	cmp	r1, #15
10002cee:	dd00      	ble.n	10002cf2 <_malloc_r+0xee>
10002cf0:	e177      	b.n	10002fe2 <_malloc_r+0x3de>
10002cf2:	6172      	str	r2, [r6, #20]
10002cf4:	6132      	str	r2, [r6, #16]
10002cf6:	2900      	cmp	r1, #0
10002cf8:	daa8      	bge.n	10002c4c <_malloc_r+0x48>
10002cfa:	4a9f      	ldr	r2, [pc, #636]	; (10002f78 <_malloc_r+0x374>)
10002cfc:	4591      	cmp	r9, r2
10002cfe:	d900      	bls.n	10002d02 <_malloc_r+0xfe>
10002d00:	e110      	b.n	10002f24 <_malloc_r+0x320>
10002d02:	08da      	lsrs	r2, r3, #3
10002d04:	2301      	movs	r3, #1
10002d06:	1091      	asrs	r1, r2, #2
10002d08:	408b      	lsls	r3, r1
10002d0a:	00d2      	lsls	r2, r2, #3
10002d0c:	6871      	ldr	r1, [r6, #4]
10002d0e:	1992      	adds	r2, r2, r6
10002d10:	430b      	orrs	r3, r1
10002d12:	6891      	ldr	r1, [r2, #8]
10002d14:	6073      	str	r3, [r6, #4]
10002d16:	60e2      	str	r2, [r4, #12]
10002d18:	60a1      	str	r1, [r4, #8]
10002d1a:	6094      	str	r4, [r2, #8]
10002d1c:	60cc      	str	r4, [r1, #12]
10002d1e:	2101      	movs	r1, #1
10002d20:	1082      	asrs	r2, r0, #2
10002d22:	4091      	lsls	r1, r2
10002d24:	4299      	cmp	r1, r3
10002d26:	d859      	bhi.n	10002ddc <_malloc_r+0x1d8>
10002d28:	420b      	tst	r3, r1
10002d2a:	d105      	bne.n	10002d38 <_malloc_r+0x134>
10002d2c:	2203      	movs	r2, #3
10002d2e:	4390      	bics	r0, r2
10002d30:	0049      	lsls	r1, r1, #1
10002d32:	3004      	adds	r0, #4
10002d34:	420b      	tst	r3, r1
10002d36:	d0fb      	beq.n	10002d30 <_malloc_r+0x12c>
10002d38:	2303      	movs	r3, #3
10002d3a:	4698      	mov	r8, r3
10002d3c:	00c3      	lsls	r3, r0, #3
10002d3e:	4699      	mov	r9, r3
10002d40:	44b1      	add	r9, r6
10002d42:	46cc      	mov	ip, r9
10002d44:	4682      	mov	sl, r0
10002d46:	4663      	mov	r3, ip
10002d48:	68dc      	ldr	r4, [r3, #12]
10002d4a:	45a4      	cmp	ip, r4
10002d4c:	d107      	bne.n	10002d5e <_malloc_r+0x15a>
10002d4e:	e129      	b.n	10002fa4 <_malloc_r+0x3a0>
10002d50:	2a00      	cmp	r2, #0
10002d52:	db00      	blt.n	10002d56 <_malloc_r+0x152>
10002d54:	e132      	b.n	10002fbc <_malloc_r+0x3b8>
10002d56:	68e4      	ldr	r4, [r4, #12]
10002d58:	45a4      	cmp	ip, r4
10002d5a:	d100      	bne.n	10002d5e <_malloc_r+0x15a>
10002d5c:	e122      	b.n	10002fa4 <_malloc_r+0x3a0>
10002d5e:	4642      	mov	r2, r8
10002d60:	6863      	ldr	r3, [r4, #4]
10002d62:	4393      	bics	r3, r2
10002d64:	1b5a      	subs	r2, r3, r5
10002d66:	2a0f      	cmp	r2, #15
10002d68:	ddf2      	ble.n	10002d50 <_malloc_r+0x14c>
10002d6a:	2001      	movs	r0, #1
10002d6c:	4680      	mov	r8, r0
10002d6e:	1961      	adds	r1, r4, r5
10002d70:	4305      	orrs	r5, r0
10002d72:	6065      	str	r5, [r4, #4]
10002d74:	68a0      	ldr	r0, [r4, #8]
10002d76:	68e5      	ldr	r5, [r4, #12]
10002d78:	3608      	adds	r6, #8
10002d7a:	60c5      	str	r5, [r0, #12]
10002d7c:	60a8      	str	r0, [r5, #8]
10002d7e:	4640      	mov	r0, r8
10002d80:	60f1      	str	r1, [r6, #12]
10002d82:	60b1      	str	r1, [r6, #8]
10002d84:	4310      	orrs	r0, r2
10002d86:	6048      	str	r0, [r1, #4]
10002d88:	60ce      	str	r6, [r1, #12]
10002d8a:	608e      	str	r6, [r1, #8]
10002d8c:	0038      	movs	r0, r7
10002d8e:	50e2      	str	r2, [r4, r3]
10002d90:	f000 fa00 	bl	10003194 <__malloc_unlock>
10002d94:	0020      	movs	r0, r4
10002d96:	3008      	adds	r0, #8
10002d98:	e002      	b.n	10002da0 <_malloc_r+0x19c>
10002d9a:	230c      	movs	r3, #12
10002d9c:	2000      	movs	r0, #0
10002d9e:	603b      	str	r3, [r7, #0]
10002da0:	b003      	add	sp, #12
10002da2:	bc3c      	pop	{r2, r3, r4, r5}
10002da4:	4690      	mov	r8, r2
10002da6:	4699      	mov	r9, r3
10002da8:	46a2      	mov	sl, r4
10002daa:	46ab      	mov	fp, r5
10002dac:	bdf0      	pop	{r4, r5, r6, r7, pc}
10002dae:	2180      	movs	r1, #128	; 0x80
10002db0:	233f      	movs	r3, #63	; 0x3f
10002db2:	0089      	lsls	r1, r1, #2
10002db4:	2040      	movs	r0, #64	; 0x40
10002db6:	4698      	mov	r8, r3
10002db8:	e76d      	b.n	10002c96 <_malloc_r+0x92>
10002dba:	68dc      	ldr	r4, [r3, #12]
10002dbc:	3002      	adds	r0, #2
10002dbe:	42a3      	cmp	r3, r4
10002dc0:	d000      	beq.n	10002dc4 <_malloc_r+0x1c0>
10002dc2:	e73b      	b.n	10002c3c <_malloc_r+0x38>
10002dc4:	0032      	movs	r2, r6
10002dc6:	6934      	ldr	r4, [r6, #16]
10002dc8:	3208      	adds	r2, #8
10002dca:	4294      	cmp	r4, r2
10002dcc:	d000      	beq.n	10002dd0 <_malloc_r+0x1cc>
10002dce:	e787      	b.n	10002ce0 <_malloc_r+0xdc>
10002dd0:	2101      	movs	r1, #1
10002dd2:	6873      	ldr	r3, [r6, #4]
10002dd4:	1082      	asrs	r2, r0, #2
10002dd6:	4091      	lsls	r1, r2
10002dd8:	4299      	cmp	r1, r3
10002dda:	d9a5      	bls.n	10002d28 <_malloc_r+0x124>
10002ddc:	2303      	movs	r3, #3
10002dde:	68b4      	ldr	r4, [r6, #8]
10002de0:	6862      	ldr	r2, [r4, #4]
10002de2:	439a      	bics	r2, r3
10002de4:	4690      	mov	r8, r2
10002de6:	42aa      	cmp	r2, r5
10002de8:	d303      	bcc.n	10002df2 <_malloc_r+0x1ee>
10002dea:	1b53      	subs	r3, r2, r5
10002dec:	2b0f      	cmp	r3, #15
10002dee:	dd00      	ble.n	10002df2 <_malloc_r+0x1ee>
10002df0:	e088      	b.n	10002f04 <_malloc_r+0x300>
10002df2:	0023      	movs	r3, r4
10002df4:	4443      	add	r3, r8
10002df6:	4a61      	ldr	r2, [pc, #388]	; (10002f7c <_malloc_r+0x378>)
10002df8:	9301      	str	r3, [sp, #4]
10002dfa:	4b61      	ldr	r3, [pc, #388]	; (10002f80 <_malloc_r+0x37c>)
10002dfc:	4693      	mov	fp, r2
10002dfe:	469a      	mov	sl, r3
10002e00:	6812      	ldr	r2, [r2, #0]
10002e02:	681b      	ldr	r3, [r3, #0]
10002e04:	18eb      	adds	r3, r5, r3
10002e06:	3201      	adds	r2, #1
10002e08:	d100      	bne.n	10002e0c <_malloc_r+0x208>
10002e0a:	e139      	b.n	10003080 <_malloc_r+0x47c>
10002e0c:	4a5d      	ldr	r2, [pc, #372]	; (10002f84 <_malloc_r+0x380>)
10002e0e:	4694      	mov	ip, r2
10002e10:	4463      	add	r3, ip
10002e12:	0b1b      	lsrs	r3, r3, #12
10002e14:	031b      	lsls	r3, r3, #12
10002e16:	9300      	str	r3, [sp, #0]
10002e18:	9900      	ldr	r1, [sp, #0]
10002e1a:	0038      	movs	r0, r7
10002e1c:	f000 f9e0 	bl	100031e0 <_sbrk_r>
10002e20:	0003      	movs	r3, r0
10002e22:	4681      	mov	r9, r0
10002e24:	3301      	adds	r3, #1
10002e26:	d100      	bne.n	10002e2a <_malloc_r+0x226>
10002e28:	e0f6      	b.n	10003018 <_malloc_r+0x414>
10002e2a:	9b01      	ldr	r3, [sp, #4]
10002e2c:	4283      	cmp	r3, r0
10002e2e:	d900      	bls.n	10002e32 <_malloc_r+0x22e>
10002e30:	e0f0      	b.n	10003014 <_malloc_r+0x410>
10002e32:	4651      	mov	r1, sl
10002e34:	6849      	ldr	r1, [r1, #4]
10002e36:	9b00      	ldr	r3, [sp, #0]
10002e38:	468c      	mov	ip, r1
10002e3a:	4651      	mov	r1, sl
10002e3c:	4463      	add	r3, ip
10002e3e:	604b      	str	r3, [r1, #4]
10002e40:	9901      	ldr	r1, [sp, #4]
10002e42:	001a      	movs	r2, r3
10002e44:	4549      	cmp	r1, r9
10002e46:	d100      	bne.n	10002e4a <_malloc_r+0x246>
10002e48:	e14f      	b.n	100030ea <_malloc_r+0x4e6>
10002e4a:	465b      	mov	r3, fp
10002e4c:	681b      	ldr	r3, [r3, #0]
10002e4e:	3301      	adds	r3, #1
10002e50:	d100      	bne.n	10002e54 <_malloc_r+0x250>
10002e52:	e154      	b.n	100030fe <_malloc_r+0x4fa>
10002e54:	464b      	mov	r3, r9
10002e56:	9901      	ldr	r1, [sp, #4]
10002e58:	1a5b      	subs	r3, r3, r1
10002e5a:	189a      	adds	r2, r3, r2
10002e5c:	4653      	mov	r3, sl
10002e5e:	605a      	str	r2, [r3, #4]
10002e60:	2307      	movs	r3, #7
10002e62:	464a      	mov	r2, r9
10002e64:	401a      	ands	r2, r3
10002e66:	9201      	str	r2, [sp, #4]
10002e68:	d100      	bne.n	10002e6c <_malloc_r+0x268>
10002e6a:	e113      	b.n	10003094 <_malloc_r+0x490>
10002e6c:	2108      	movs	r1, #8
10002e6e:	464b      	mov	r3, r9
10002e70:	4689      	mov	r9, r1
10002e72:	1a9b      	subs	r3, r3, r2
10002e74:	4499      	add	r9, r3
10002e76:	9900      	ldr	r1, [sp, #0]
10002e78:	4b43      	ldr	r3, [pc, #268]	; (10002f88 <_malloc_r+0x384>)
10002e7a:	4449      	add	r1, r9
10002e7c:	1a9b      	subs	r3, r3, r2
10002e7e:	1a5b      	subs	r3, r3, r1
10002e80:	051b      	lsls	r3, r3, #20
10002e82:	0d1b      	lsrs	r3, r3, #20
10002e84:	9100      	str	r1, [sp, #0]
10002e86:	0038      	movs	r0, r7
10002e88:	0019      	movs	r1, r3
10002e8a:	469b      	mov	fp, r3
10002e8c:	f000 f9a8 	bl	100031e0 <_sbrk_r>
10002e90:	1c43      	adds	r3, r0, #1
10002e92:	d100      	bne.n	10002e96 <_malloc_r+0x292>
10002e94:	e14f      	b.n	10003136 <_malloc_r+0x532>
10002e96:	464b      	mov	r3, r9
10002e98:	1ac0      	subs	r0, r0, r3
10002e9a:	0003      	movs	r3, r0
10002e9c:	445b      	add	r3, fp
10002e9e:	9300      	str	r3, [sp, #0]
10002ea0:	4653      	mov	r3, sl
10002ea2:	4652      	mov	r2, sl
10002ea4:	685b      	ldr	r3, [r3, #4]
10002ea6:	2101      	movs	r1, #1
10002ea8:	445b      	add	r3, fp
10002eaa:	6053      	str	r3, [r2, #4]
10002eac:	464a      	mov	r2, r9
10002eae:	4648      	mov	r0, r9
10002eb0:	60b2      	str	r2, [r6, #8]
10002eb2:	9a00      	ldr	r2, [sp, #0]
10002eb4:	430a      	orrs	r2, r1
10002eb6:	6042      	str	r2, [r0, #4]
10002eb8:	42b4      	cmp	r4, r6
10002eba:	d100      	bne.n	10002ebe <_malloc_r+0x2ba>
10002ebc:	e123      	b.n	10003106 <_malloc_r+0x502>
10002ebe:	4642      	mov	r2, r8
10002ec0:	2a0f      	cmp	r2, #15
10002ec2:	d800      	bhi.n	10002ec6 <_malloc_r+0x2c2>
10002ec4:	e121      	b.n	1000310a <_malloc_r+0x506>
10002ec6:	2007      	movs	r0, #7
10002ec8:	3a0c      	subs	r2, #12
10002eca:	4382      	bics	r2, r0
10002ecc:	6860      	ldr	r0, [r4, #4]
10002ece:	4001      	ands	r1, r0
10002ed0:	2005      	movs	r0, #5
10002ed2:	4311      	orrs	r1, r2
10002ed4:	6061      	str	r1, [r4, #4]
10002ed6:	18a1      	adds	r1, r4, r2
10002ed8:	6048      	str	r0, [r1, #4]
10002eda:	6088      	str	r0, [r1, #8]
10002edc:	2a0f      	cmp	r2, #15
10002ede:	d900      	bls.n	10002ee2 <_malloc_r+0x2de>
10002ee0:	e134      	b.n	1000314c <_malloc_r+0x548>
10002ee2:	464a      	mov	r2, r9
10002ee4:	464c      	mov	r4, r9
10002ee6:	6852      	ldr	r2, [r2, #4]
10002ee8:	4651      	mov	r1, sl
10002eea:	6ac9      	ldr	r1, [r1, #44]	; 0x2c
10002eec:	4299      	cmp	r1, r3
10002eee:	d201      	bcs.n	10002ef4 <_malloc_r+0x2f0>
10002ef0:	4651      	mov	r1, sl
10002ef2:	62cb      	str	r3, [r1, #44]	; 0x2c
10002ef4:	4651      	mov	r1, sl
10002ef6:	6b09      	ldr	r1, [r1, #48]	; 0x30
10002ef8:	4299      	cmp	r1, r3
10002efa:	d300      	bcc.n	10002efe <_malloc_r+0x2fa>
10002efc:	e08e      	b.n	1000301c <_malloc_r+0x418>
10002efe:	4651      	mov	r1, sl
10002f00:	630b      	str	r3, [r1, #48]	; 0x30
10002f02:	e08b      	b.n	1000301c <_malloc_r+0x418>
10002f04:	2201      	movs	r2, #1
10002f06:	0029      	movs	r1, r5
10002f08:	4313      	orrs	r3, r2
10002f0a:	4311      	orrs	r1, r2
10002f0c:	1965      	adds	r5, r4, r5
10002f0e:	6061      	str	r1, [r4, #4]
10002f10:	0038      	movs	r0, r7
10002f12:	60b5      	str	r5, [r6, #8]
10002f14:	606b      	str	r3, [r5, #4]
10002f16:	f000 f93d 	bl	10003194 <__malloc_unlock>
10002f1a:	0020      	movs	r0, r4
10002f1c:	3008      	adds	r0, #8
10002f1e:	e73f      	b.n	10002da0 <_malloc_r+0x19c>
10002f20:	4640      	mov	r0, r8
10002f22:	e6d7      	b.n	10002cd4 <_malloc_r+0xd0>
10002f24:	0a5a      	lsrs	r2, r3, #9
10002f26:	2a04      	cmp	r2, #4
10002f28:	d96e      	bls.n	10003008 <_malloc_r+0x404>
10002f2a:	2a14      	cmp	r2, #20
10002f2c:	d900      	bls.n	10002f30 <_malloc_r+0x32c>
10002f2e:	e0c1      	b.n	100030b4 <_malloc_r+0x4b0>
10002f30:	0011      	movs	r1, r2
10002f32:	325c      	adds	r2, #92	; 0x5c
10002f34:	315b      	adds	r1, #91	; 0x5b
10002f36:	00d2      	lsls	r2, r2, #3
10002f38:	2308      	movs	r3, #8
10002f3a:	425b      	negs	r3, r3
10002f3c:	469c      	mov	ip, r3
10002f3e:	18b2      	adds	r2, r6, r2
10002f40:	4494      	add	ip, r2
10002f42:	4663      	mov	r3, ip
10002f44:	689a      	ldr	r2, [r3, #8]
10002f46:	2303      	movs	r3, #3
10002f48:	4698      	mov	r8, r3
10002f4a:	4594      	cmp	ip, r2
10002f4c:	d100      	bne.n	10002f50 <_malloc_r+0x34c>
10002f4e:	e09a      	b.n	10003086 <_malloc_r+0x482>
10002f50:	4643      	mov	r3, r8
10002f52:	6851      	ldr	r1, [r2, #4]
10002f54:	4399      	bics	r1, r3
10002f56:	4549      	cmp	r1, r9
10002f58:	d902      	bls.n	10002f60 <_malloc_r+0x35c>
10002f5a:	6892      	ldr	r2, [r2, #8]
10002f5c:	4594      	cmp	ip, r2
10002f5e:	d1f7      	bne.n	10002f50 <_malloc_r+0x34c>
10002f60:	68d3      	ldr	r3, [r2, #12]
10002f62:	469c      	mov	ip, r3
10002f64:	6873      	ldr	r3, [r6, #4]
10002f66:	4661      	mov	r1, ip
10002f68:	60a2      	str	r2, [r4, #8]
10002f6a:	60e1      	str	r1, [r4, #12]
10002f6c:	608c      	str	r4, [r1, #8]
10002f6e:	60d4      	str	r4, [r2, #12]
10002f70:	e6d5      	b.n	10002d1e <_malloc_r+0x11a>
10002f72:	46c0      	nop			; (mov r8, r8)
10002f74:	20000640 	.word	0x20000640
10002f78:	000001ff 	.word	0x000001ff
10002f7c:	20000638 	.word	0x20000638
10002f80:	20000a80 	.word	0x20000a80
10002f84:	0000100f 	.word	0x0000100f
10002f88:	00001008 	.word	0x00001008
10002f8c:	2814      	cmp	r0, #20
10002f8e:	d952      	bls.n	10003036 <_malloc_r+0x432>
10002f90:	2854      	cmp	r0, #84	; 0x54
10002f92:	d900      	bls.n	10002f96 <_malloc_r+0x392>
10002f94:	e096      	b.n	100030c4 <_malloc_r+0x4c0>
10002f96:	236e      	movs	r3, #110	; 0x6e
10002f98:	4698      	mov	r8, r3
10002f9a:	0b28      	lsrs	r0, r5, #12
10002f9c:	4480      	add	r8, r0
10002f9e:	306f      	adds	r0, #111	; 0x6f
10002fa0:	00c1      	lsls	r1, r0, #3
10002fa2:	e678      	b.n	10002c96 <_malloc_r+0x92>
10002fa4:	2308      	movs	r3, #8
10002fa6:	469b      	mov	fp, r3
10002fa8:	3b07      	subs	r3, #7
10002faa:	44dc      	add	ip, fp
10002fac:	469b      	mov	fp, r3
10002fae:	44da      	add	sl, fp
10002fb0:	4643      	mov	r3, r8
10002fb2:	4652      	mov	r2, sl
10002fb4:	4213      	tst	r3, r2
10002fb6:	d000      	beq.n	10002fba <_malloc_r+0x3b6>
10002fb8:	e6c5      	b.n	10002d46 <_malloc_r+0x142>
10002fba:	e04c      	b.n	10003056 <_malloc_r+0x452>
10002fbc:	2201      	movs	r2, #1
10002fbe:	18e3      	adds	r3, r4, r3
10002fc0:	6859      	ldr	r1, [r3, #4]
10002fc2:	0038      	movs	r0, r7
10002fc4:	430a      	orrs	r2, r1
10002fc6:	605a      	str	r2, [r3, #4]
10002fc8:	68e3      	ldr	r3, [r4, #12]
10002fca:	68a2      	ldr	r2, [r4, #8]
10002fcc:	60d3      	str	r3, [r2, #12]
10002fce:	609a      	str	r2, [r3, #8]
10002fd0:	f000 f8e0 	bl	10003194 <__malloc_unlock>
10002fd4:	0020      	movs	r0, r4
10002fd6:	3008      	adds	r0, #8
10002fd8:	e6e2      	b.n	10002da0 <_malloc_r+0x19c>
10002fda:	002b      	movs	r3, r5
10002fdc:	08e8      	lsrs	r0, r5, #3
10002fde:	3308      	adds	r3, #8
10002fe0:	e624      	b.n	10002c2c <_malloc_r+0x28>
10002fe2:	2301      	movs	r3, #1
10002fe4:	1960      	adds	r0, r4, r5
10002fe6:	431d      	orrs	r5, r3
10002fe8:	6065      	str	r5, [r4, #4]
10002fea:	6170      	str	r0, [r6, #20]
10002fec:	6130      	str	r0, [r6, #16]
10002fee:	60c2      	str	r2, [r0, #12]
10002ff0:	6082      	str	r2, [r0, #8]
10002ff2:	001a      	movs	r2, r3
10002ff4:	464b      	mov	r3, r9
10002ff6:	430a      	orrs	r2, r1
10002ff8:	6042      	str	r2, [r0, #4]
10002ffa:	0038      	movs	r0, r7
10002ffc:	50e1      	str	r1, [r4, r3]
10002ffe:	f000 f8c9 	bl	10003194 <__malloc_unlock>
10003002:	0020      	movs	r0, r4
10003004:	3008      	adds	r0, #8
10003006:	e6cb      	b.n	10002da0 <_malloc_r+0x19c>
10003008:	099a      	lsrs	r2, r3, #6
1000300a:	0011      	movs	r1, r2
1000300c:	3239      	adds	r2, #57	; 0x39
1000300e:	3138      	adds	r1, #56	; 0x38
10003010:	00d2      	lsls	r2, r2, #3
10003012:	e791      	b.n	10002f38 <_malloc_r+0x334>
10003014:	42b4      	cmp	r4, r6
10003016:	d060      	beq.n	100030da <_malloc_r+0x4d6>
10003018:	68b4      	ldr	r4, [r6, #8]
1000301a:	6862      	ldr	r2, [r4, #4]
1000301c:	2303      	movs	r3, #3
1000301e:	439a      	bics	r2, r3
10003020:	1b53      	subs	r3, r2, r5
10003022:	42aa      	cmp	r2, r5
10003024:	d302      	bcc.n	1000302c <_malloc_r+0x428>
10003026:	2b0f      	cmp	r3, #15
10003028:	dd00      	ble.n	1000302c <_malloc_r+0x428>
1000302a:	e76b      	b.n	10002f04 <_malloc_r+0x300>
1000302c:	0038      	movs	r0, r7
1000302e:	f000 f8b1 	bl	10003194 <__malloc_unlock>
10003032:	2000      	movs	r0, #0
10003034:	e6b4      	b.n	10002da0 <_malloc_r+0x19c>
10003036:	235b      	movs	r3, #91	; 0x5b
10003038:	4698      	mov	r8, r3
1000303a:	4480      	add	r8, r0
1000303c:	305c      	adds	r0, #92	; 0x5c
1000303e:	00c1      	lsls	r1, r0, #3
10003040:	e629      	b.n	10002c96 <_malloc_r+0x92>
10003042:	2308      	movs	r3, #8
10003044:	425b      	negs	r3, r3
10003046:	469c      	mov	ip, r3
10003048:	44e1      	add	r9, ip
1000304a:	464b      	mov	r3, r9
1000304c:	689b      	ldr	r3, [r3, #8]
1000304e:	3801      	subs	r0, #1
10003050:	454b      	cmp	r3, r9
10003052:	d000      	beq.n	10003056 <_malloc_r+0x452>
10003054:	e097      	b.n	10003186 <_malloc_r+0x582>
10003056:	4643      	mov	r3, r8
10003058:	4203      	tst	r3, r0
1000305a:	d1f2      	bne.n	10003042 <_malloc_r+0x43e>
1000305c:	6873      	ldr	r3, [r6, #4]
1000305e:	438b      	bics	r3, r1
10003060:	6073      	str	r3, [r6, #4]
10003062:	0049      	lsls	r1, r1, #1
10003064:	4299      	cmp	r1, r3
10003066:	d900      	bls.n	1000306a <_malloc_r+0x466>
10003068:	e6b8      	b.n	10002ddc <_malloc_r+0x1d8>
1000306a:	2900      	cmp	r1, #0
1000306c:	d104      	bne.n	10003078 <_malloc_r+0x474>
1000306e:	e6b5      	b.n	10002ddc <_malloc_r+0x1d8>
10003070:	2204      	movs	r2, #4
10003072:	4694      	mov	ip, r2
10003074:	0049      	lsls	r1, r1, #1
10003076:	44e2      	add	sl, ip
10003078:	420b      	tst	r3, r1
1000307a:	d0f9      	beq.n	10003070 <_malloc_r+0x46c>
1000307c:	4650      	mov	r0, sl
1000307e:	e65d      	b.n	10002d3c <_malloc_r+0x138>
10003080:	3310      	adds	r3, #16
10003082:	9300      	str	r3, [sp, #0]
10003084:	e6c8      	b.n	10002e18 <_malloc_r+0x214>
10003086:	1089      	asrs	r1, r1, #2
10003088:	3b02      	subs	r3, #2
1000308a:	408b      	lsls	r3, r1
1000308c:	6871      	ldr	r1, [r6, #4]
1000308e:	430b      	orrs	r3, r1
10003090:	6073      	str	r3, [r6, #4]
10003092:	e768      	b.n	10002f66 <_malloc_r+0x362>
10003094:	9b00      	ldr	r3, [sp, #0]
10003096:	0038      	movs	r0, r7
10003098:	444b      	add	r3, r9
1000309a:	051b      	lsls	r3, r3, #20
1000309c:	425b      	negs	r3, r3
1000309e:	0d1b      	lsrs	r3, r3, #20
100030a0:	0019      	movs	r1, r3
100030a2:	469b      	mov	fp, r3
100030a4:	f000 f89c 	bl	100031e0 <_sbrk_r>
100030a8:	1c43      	adds	r3, r0, #1
100030aa:	d000      	beq.n	100030ae <_malloc_r+0x4aa>
100030ac:	e6f3      	b.n	10002e96 <_malloc_r+0x292>
100030ae:	2300      	movs	r3, #0
100030b0:	469b      	mov	fp, r3
100030b2:	e6f5      	b.n	10002ea0 <_malloc_r+0x29c>
100030b4:	2a54      	cmp	r2, #84	; 0x54
100030b6:	d82a      	bhi.n	1000310e <_malloc_r+0x50a>
100030b8:	0b1a      	lsrs	r2, r3, #12
100030ba:	0011      	movs	r1, r2
100030bc:	326f      	adds	r2, #111	; 0x6f
100030be:	316e      	adds	r1, #110	; 0x6e
100030c0:	00d2      	lsls	r2, r2, #3
100030c2:	e739      	b.n	10002f38 <_malloc_r+0x334>
100030c4:	23aa      	movs	r3, #170	; 0xaa
100030c6:	005b      	lsls	r3, r3, #1
100030c8:	4298      	cmp	r0, r3
100030ca:	d82a      	bhi.n	10003122 <_malloc_r+0x51e>
100030cc:	3bdd      	subs	r3, #221	; 0xdd
100030ce:	4698      	mov	r8, r3
100030d0:	0be8      	lsrs	r0, r5, #15
100030d2:	4480      	add	r8, r0
100030d4:	3078      	adds	r0, #120	; 0x78
100030d6:	00c1      	lsls	r1, r0, #3
100030d8:	e5dd      	b.n	10002c96 <_malloc_r+0x92>
100030da:	4653      	mov	r3, sl
100030dc:	685b      	ldr	r3, [r3, #4]
100030de:	9a00      	ldr	r2, [sp, #0]
100030e0:	469c      	mov	ip, r3
100030e2:	4653      	mov	r3, sl
100030e4:	4462      	add	r2, ip
100030e6:	605a      	str	r2, [r3, #4]
100030e8:	e6af      	b.n	10002e4a <_malloc_r+0x246>
100030ea:	0509      	lsls	r1, r1, #20
100030ec:	d000      	beq.n	100030f0 <_malloc_r+0x4ec>
100030ee:	e6ac      	b.n	10002e4a <_malloc_r+0x246>
100030f0:	9a00      	ldr	r2, [sp, #0]
100030f2:	68b4      	ldr	r4, [r6, #8]
100030f4:	4442      	add	r2, r8
100030f6:	3101      	adds	r1, #1
100030f8:	430a      	orrs	r2, r1
100030fa:	6062      	str	r2, [r4, #4]
100030fc:	e6f4      	b.n	10002ee8 <_malloc_r+0x2e4>
100030fe:	465b      	mov	r3, fp
10003100:	464a      	mov	r2, r9
10003102:	601a      	str	r2, [r3, #0]
10003104:	e6ac      	b.n	10002e60 <_malloc_r+0x25c>
10003106:	464c      	mov	r4, r9
10003108:	e6ee      	b.n	10002ee8 <_malloc_r+0x2e4>
1000310a:	6041      	str	r1, [r0, #4]
1000310c:	e78e      	b.n	1000302c <_malloc_r+0x428>
1000310e:	21aa      	movs	r1, #170	; 0xaa
10003110:	0049      	lsls	r1, r1, #1
10003112:	428a      	cmp	r2, r1
10003114:	d824      	bhi.n	10003160 <_malloc_r+0x55c>
10003116:	0bda      	lsrs	r2, r3, #15
10003118:	0011      	movs	r1, r2
1000311a:	3278      	adds	r2, #120	; 0x78
1000311c:	3177      	adds	r1, #119	; 0x77
1000311e:	00d2      	lsls	r2, r2, #3
10003120:	e70a      	b.n	10002f38 <_malloc_r+0x334>
10003122:	4b1a      	ldr	r3, [pc, #104]	; (1000318c <_malloc_r+0x588>)
10003124:	4298      	cmp	r0, r3
10003126:	d824      	bhi.n	10003172 <_malloc_r+0x56e>
10003128:	237c      	movs	r3, #124	; 0x7c
1000312a:	4698      	mov	r8, r3
1000312c:	0ca8      	lsrs	r0, r5, #18
1000312e:	4480      	add	r8, r0
10003130:	307d      	adds	r0, #125	; 0x7d
10003132:	00c1      	lsls	r1, r0, #3
10003134:	e5af      	b.n	10002c96 <_malloc_r+0x92>
10003136:	9a00      	ldr	r2, [sp, #0]
10003138:	9b01      	ldr	r3, [sp, #4]
1000313a:	4694      	mov	ip, r2
1000313c:	464a      	mov	r2, r9
1000313e:	3b08      	subs	r3, #8
10003140:	4463      	add	r3, ip
10003142:	1a9b      	subs	r3, r3, r2
10003144:	9300      	str	r3, [sp, #0]
10003146:	2300      	movs	r3, #0
10003148:	469b      	mov	fp, r3
1000314a:	e6a9      	b.n	10002ea0 <_malloc_r+0x29c>
1000314c:	0021      	movs	r1, r4
1000314e:	0038      	movs	r0, r7
10003150:	3108      	adds	r1, #8
10003152:	f000 f8db 	bl	1000330c <_free_r>
10003156:	4653      	mov	r3, sl
10003158:	68b4      	ldr	r4, [r6, #8]
1000315a:	685b      	ldr	r3, [r3, #4]
1000315c:	6862      	ldr	r2, [r4, #4]
1000315e:	e6c3      	b.n	10002ee8 <_malloc_r+0x2e4>
10003160:	490a      	ldr	r1, [pc, #40]	; (1000318c <_malloc_r+0x588>)
10003162:	428a      	cmp	r2, r1
10003164:	d80b      	bhi.n	1000317e <_malloc_r+0x57a>
10003166:	0c9a      	lsrs	r2, r3, #18
10003168:	0011      	movs	r1, r2
1000316a:	327d      	adds	r2, #125	; 0x7d
1000316c:	317c      	adds	r1, #124	; 0x7c
1000316e:	00d2      	lsls	r2, r2, #3
10003170:	e6e2      	b.n	10002f38 <_malloc_r+0x334>
10003172:	21fe      	movs	r1, #254	; 0xfe
10003174:	237e      	movs	r3, #126	; 0x7e
10003176:	0089      	lsls	r1, r1, #2
10003178:	207f      	movs	r0, #127	; 0x7f
1000317a:	4698      	mov	r8, r3
1000317c:	e58b      	b.n	10002c96 <_malloc_r+0x92>
1000317e:	22fe      	movs	r2, #254	; 0xfe
10003180:	217e      	movs	r1, #126	; 0x7e
10003182:	0092      	lsls	r2, r2, #2
10003184:	e6d8      	b.n	10002f38 <_malloc_r+0x334>
10003186:	6873      	ldr	r3, [r6, #4]
10003188:	e76b      	b.n	10003062 <_malloc_r+0x45e>
1000318a:	46c0      	nop			; (mov r8, r8)
1000318c:	00000554 	.word	0x00000554

10003190 <__malloc_lock>:
10003190:	4770      	bx	lr
10003192:	46c0      	nop			; (mov r8, r8)

10003194 <__malloc_unlock>:
10003194:	4770      	bx	lr
10003196:	46c0      	nop			; (mov r8, r8)

10003198 <srand>:
10003198:	2200      	movs	r2, #0
1000319a:	4b03      	ldr	r3, [pc, #12]	; (100031a8 <srand+0x10>)
1000319c:	681b      	ldr	r3, [r3, #0]
1000319e:	33a8      	adds	r3, #168	; 0xa8
100031a0:	6018      	str	r0, [r3, #0]
100031a2:	605a      	str	r2, [r3, #4]
100031a4:	4770      	bx	lr
100031a6:	46c0      	nop			; (mov r8, r8)
100031a8:	20000208 	.word	0x20000208

100031ac <rand>:
100031ac:	4b09      	ldr	r3, [pc, #36]	; (100031d4 <rand+0x28>)
100031ae:	b510      	push	{r4, lr}
100031b0:	681c      	ldr	r4, [r3, #0]
100031b2:	4a09      	ldr	r2, [pc, #36]	; (100031d8 <rand+0x2c>)
100031b4:	34a8      	adds	r4, #168	; 0xa8
100031b6:	6820      	ldr	r0, [r4, #0]
100031b8:	6861      	ldr	r1, [r4, #4]
100031ba:	4b08      	ldr	r3, [pc, #32]	; (100031dc <rand+0x30>)
100031bc:	f7ff fa6e 	bl	1000269c <__wrap___aeabi_lmul>
100031c0:	2201      	movs	r2, #1
100031c2:	2300      	movs	r3, #0
100031c4:	1880      	adds	r0, r0, r2
100031c6:	4159      	adcs	r1, r3
100031c8:	6020      	str	r0, [r4, #0]
100031ca:	6061      	str	r1, [r4, #4]
100031cc:	0048      	lsls	r0, r1, #1
100031ce:	0840      	lsrs	r0, r0, #1
100031d0:	bd10      	pop	{r4, pc}
100031d2:	46c0      	nop			; (mov r8, r8)
100031d4:	20000208 	.word	0x20000208
100031d8:	4c957f2d 	.word	0x4c957f2d
100031dc:	5851f42d 	.word	0x5851f42d

100031e0 <_sbrk_r>:
100031e0:	2300      	movs	r3, #0
100031e2:	b570      	push	{r4, r5, r6, lr}
100031e4:	4c06      	ldr	r4, [pc, #24]	; (10003200 <_sbrk_r+0x20>)
100031e6:	0005      	movs	r5, r0
100031e8:	0008      	movs	r0, r1
100031ea:	6023      	str	r3, [r4, #0]
100031ec:	f7fe fb18 	bl	10001820 <_sbrk>
100031f0:	1c43      	adds	r3, r0, #1
100031f2:	d000      	beq.n	100031f6 <_sbrk_r+0x16>
100031f4:	bd70      	pop	{r4, r5, r6, pc}
100031f6:	6823      	ldr	r3, [r4, #0]
100031f8:	2b00      	cmp	r3, #0
100031fa:	d0fb      	beq.n	100031f4 <_sbrk_r+0x14>
100031fc:	602b      	str	r3, [r5, #0]
100031fe:	e7f9      	b.n	100031f4 <_sbrk_r+0x14>
10003200:	20000d3c 	.word	0x20000d3c

10003204 <strlen>:
10003204:	b510      	push	{r4, lr}
10003206:	0783      	lsls	r3, r0, #30
10003208:	d027      	beq.n	1000325a <strlen+0x56>
1000320a:	7803      	ldrb	r3, [r0, #0]
1000320c:	2b00      	cmp	r3, #0
1000320e:	d026      	beq.n	1000325e <strlen+0x5a>
10003210:	0003      	movs	r3, r0
10003212:	2103      	movs	r1, #3
10003214:	e002      	b.n	1000321c <strlen+0x18>
10003216:	781a      	ldrb	r2, [r3, #0]
10003218:	2a00      	cmp	r2, #0
1000321a:	d01c      	beq.n	10003256 <strlen+0x52>
1000321c:	3301      	adds	r3, #1
1000321e:	420b      	tst	r3, r1
10003220:	d1f9      	bne.n	10003216 <strlen+0x12>
10003222:	6819      	ldr	r1, [r3, #0]
10003224:	4a0f      	ldr	r2, [pc, #60]	; (10003264 <strlen+0x60>)
10003226:	4c10      	ldr	r4, [pc, #64]	; (10003268 <strlen+0x64>)
10003228:	188a      	adds	r2, r1, r2
1000322a:	438a      	bics	r2, r1
1000322c:	4222      	tst	r2, r4
1000322e:	d10f      	bne.n	10003250 <strlen+0x4c>
10003230:	3304      	adds	r3, #4
10003232:	6819      	ldr	r1, [r3, #0]
10003234:	4a0b      	ldr	r2, [pc, #44]	; (10003264 <strlen+0x60>)
10003236:	188a      	adds	r2, r1, r2
10003238:	438a      	bics	r2, r1
1000323a:	4222      	tst	r2, r4
1000323c:	d108      	bne.n	10003250 <strlen+0x4c>
1000323e:	3304      	adds	r3, #4
10003240:	6819      	ldr	r1, [r3, #0]
10003242:	4a08      	ldr	r2, [pc, #32]	; (10003264 <strlen+0x60>)
10003244:	188a      	adds	r2, r1, r2
10003246:	438a      	bics	r2, r1
10003248:	4222      	tst	r2, r4
1000324a:	d0f1      	beq.n	10003230 <strlen+0x2c>
1000324c:	e000      	b.n	10003250 <strlen+0x4c>
1000324e:	3301      	adds	r3, #1
10003250:	781a      	ldrb	r2, [r3, #0]
10003252:	2a00      	cmp	r2, #0
10003254:	d1fb      	bne.n	1000324e <strlen+0x4a>
10003256:	1a18      	subs	r0, r3, r0
10003258:	bd10      	pop	{r4, pc}
1000325a:	0003      	movs	r3, r0
1000325c:	e7e1      	b.n	10003222 <strlen+0x1e>
1000325e:	2000      	movs	r0, #0
10003260:	e7fa      	b.n	10003258 <strlen+0x54>
10003262:	46c0      	nop			; (mov r8, r8)
10003264:	fefefeff 	.word	0xfefefeff
10003268:	80808080 	.word	0x80808080

1000326c <_malloc_trim_r>:
1000326c:	b5f8      	push	{r3, r4, r5, r6, r7, lr}
1000326e:	000c      	movs	r4, r1
10003270:	0006      	movs	r6, r0
10003272:	f7ff ff8d 	bl	10003190 <__malloc_lock>
10003276:	4f20      	ldr	r7, [pc, #128]	; (100032f8 <_malloc_trim_r+0x8c>)
10003278:	68bb      	ldr	r3, [r7, #8]
1000327a:	685d      	ldr	r5, [r3, #4]
1000327c:	2303      	movs	r3, #3
1000327e:	439d      	bics	r5, r3
10003280:	4b1e      	ldr	r3, [pc, #120]	; (100032fc <_malloc_trim_r+0x90>)
10003282:	1b2c      	subs	r4, r5, r4
10003284:	469c      	mov	ip, r3
10003286:	4464      	add	r4, ip
10003288:	0b24      	lsrs	r4, r4, #12
1000328a:	4b1d      	ldr	r3, [pc, #116]	; (10003300 <_malloc_trim_r+0x94>)
1000328c:	3c01      	subs	r4, #1
1000328e:	0324      	lsls	r4, r4, #12
10003290:	429c      	cmp	r4, r3
10003292:	dd07      	ble.n	100032a4 <_malloc_trim_r+0x38>
10003294:	2100      	movs	r1, #0
10003296:	0030      	movs	r0, r6
10003298:	f7ff ffa2 	bl	100031e0 <_sbrk_r>
1000329c:	68bb      	ldr	r3, [r7, #8]
1000329e:	195b      	adds	r3, r3, r5
100032a0:	4298      	cmp	r0, r3
100032a2:	d004      	beq.n	100032ae <_malloc_trim_r+0x42>
100032a4:	0030      	movs	r0, r6
100032a6:	f7ff ff75 	bl	10003194 <__malloc_unlock>
100032aa:	2000      	movs	r0, #0
100032ac:	bdf8      	pop	{r3, r4, r5, r6, r7, pc}
100032ae:	4261      	negs	r1, r4
100032b0:	0030      	movs	r0, r6
100032b2:	f7ff ff95 	bl	100031e0 <_sbrk_r>
100032b6:	1c43      	adds	r3, r0, #1
100032b8:	d00d      	beq.n	100032d6 <_malloc_trim_r+0x6a>
100032ba:	2201      	movs	r2, #1
100032bc:	68bb      	ldr	r3, [r7, #8]
100032be:	1b2d      	subs	r5, r5, r4
100032c0:	4315      	orrs	r5, r2
100032c2:	605d      	str	r5, [r3, #4]
100032c4:	4b0f      	ldr	r3, [pc, #60]	; (10003304 <_malloc_trim_r+0x98>)
100032c6:	0030      	movs	r0, r6
100032c8:	681a      	ldr	r2, [r3, #0]
100032ca:	1b14      	subs	r4, r2, r4
100032cc:	601c      	str	r4, [r3, #0]
100032ce:	f7ff ff61 	bl	10003194 <__malloc_unlock>
100032d2:	2001      	movs	r0, #1
100032d4:	e7ea      	b.n	100032ac <_malloc_trim_r+0x40>
100032d6:	2100      	movs	r1, #0
100032d8:	0030      	movs	r0, r6
100032da:	f7ff ff81 	bl	100031e0 <_sbrk_r>
100032de:	68ba      	ldr	r2, [r7, #8]
100032e0:	1a83      	subs	r3, r0, r2
100032e2:	2b0f      	cmp	r3, #15
100032e4:	ddde      	ble.n	100032a4 <_malloc_trim_r+0x38>
100032e6:	4908      	ldr	r1, [pc, #32]	; (10003308 <_malloc_trim_r+0x9c>)
100032e8:	6809      	ldr	r1, [r1, #0]
100032ea:	1a40      	subs	r0, r0, r1
100032ec:	4905      	ldr	r1, [pc, #20]	; (10003304 <_malloc_trim_r+0x98>)
100032ee:	6008      	str	r0, [r1, #0]
100032f0:	2101      	movs	r1, #1
100032f2:	430b      	orrs	r3, r1
100032f4:	6053      	str	r3, [r2, #4]
100032f6:	e7d5      	b.n	100032a4 <_malloc_trim_r+0x38>
100032f8:	20000640 	.word	0x20000640
100032fc:	00000fef 	.word	0x00000fef
10003300:	00000fff 	.word	0x00000fff
10003304:	20000a84 	.word	0x20000a84
10003308:	20000638 	.word	0x20000638

1000330c <_free_r>:
1000330c:	b5f0      	push	{r4, r5, r6, r7, lr}
1000330e:	46d6      	mov	lr, sl
10003310:	464f      	mov	r7, r9
10003312:	4646      	mov	r6, r8
10003314:	0005      	movs	r5, r0
10003316:	b5c0      	push	{r6, r7, lr}
10003318:	1e0c      	subs	r4, r1, #0
1000331a:	d05c      	beq.n	100033d6 <_free_r+0xca>
1000331c:	f7ff ff38 	bl	10003190 <__malloc_lock>
10003320:	0021      	movs	r1, r4
10003322:	3908      	subs	r1, #8
10003324:	684f      	ldr	r7, [r1, #4]
10003326:	2401      	movs	r4, #1
10003328:	003b      	movs	r3, r7
1000332a:	2203      	movs	r2, #3
1000332c:	43a3      	bics	r3, r4
1000332e:	18c8      	adds	r0, r1, r3
10003330:	6846      	ldr	r6, [r0, #4]
10003332:	4396      	bics	r6, r2
10003334:	46b1      	mov	r9, r6
10003336:	4e66      	ldr	r6, [pc, #408]	; (100034d0 <_free_r+0x1c4>)
10003338:	68b2      	ldr	r2, [r6, #8]
1000333a:	4282      	cmp	r2, r0
1000333c:	d100      	bne.n	10003340 <_free_r+0x34>
1000333e:	e075      	b.n	1000342c <_free_r+0x120>
10003340:	464a      	mov	r2, r9
10003342:	6042      	str	r2, [r0, #4]
10003344:	1882      	adds	r2, r0, r2
10003346:	4694      	mov	ip, r2
10003348:	423c      	tst	r4, r7
1000334a:	d129      	bne.n	100033a0 <_free_r+0x94>
1000334c:	680f      	ldr	r7, [r1, #0]
1000334e:	1bc9      	subs	r1, r1, r7
10003350:	688a      	ldr	r2, [r1, #8]
10003352:	19db      	adds	r3, r3, r7
10003354:	4690      	mov	r8, r2
10003356:	4662      	mov	r2, ip
10003358:	6857      	ldr	r7, [r2, #4]
1000335a:	2208      	movs	r2, #8
1000335c:	4694      	mov	ip, r2
1000335e:	4027      	ands	r7, r4
10003360:	44b4      	add	ip, r6
10003362:	46ba      	mov	sl, r7
10003364:	45e0      	cmp	r8, ip
10003366:	d056      	beq.n	10003416 <_free_r+0x10a>
10003368:	68ca      	ldr	r2, [r1, #12]
1000336a:	4694      	mov	ip, r2
1000336c:	4642      	mov	r2, r8
1000336e:	4667      	mov	r7, ip
10003370:	60d7      	str	r7, [r2, #12]
10003372:	4662      	mov	r2, ip
10003374:	4647      	mov	r7, r8
10003376:	6097      	str	r7, [r2, #8]
10003378:	4652      	mov	r2, sl
1000337a:	2a00      	cmp	r2, #0
1000337c:	d113      	bne.n	100033a6 <_free_r+0x9a>
1000337e:	2201      	movs	r2, #1
10003380:	444b      	add	r3, r9
10003382:	18cf      	adds	r7, r1, r3
10003384:	46bc      	mov	ip, r7
10003386:	6884      	ldr	r4, [r0, #8]
10003388:	4f52      	ldr	r7, [pc, #328]	; (100034d4 <_free_r+0x1c8>)
1000338a:	431a      	orrs	r2, r3
1000338c:	42bc      	cmp	r4, r7
1000338e:	d100      	bne.n	10003392 <_free_r+0x86>
10003390:	e07a      	b.n	10003488 <_free_r+0x17c>
10003392:	68c0      	ldr	r0, [r0, #12]
10003394:	60e0      	str	r0, [r4, #12]
10003396:	6084      	str	r4, [r0, #8]
10003398:	604a      	str	r2, [r1, #4]
1000339a:	4662      	mov	r2, ip
1000339c:	6013      	str	r3, [r2, #0]
1000339e:	e005      	b.n	100033ac <_free_r+0xa0>
100033a0:	6857      	ldr	r7, [r2, #4]
100033a2:	4227      	tst	r7, r4
100033a4:	d0eb      	beq.n	1000337e <_free_r+0x72>
100033a6:	431c      	orrs	r4, r3
100033a8:	604c      	str	r4, [r1, #4]
100033aa:	6003      	str	r3, [r0, #0]
100033ac:	4a4a      	ldr	r2, [pc, #296]	; (100034d8 <_free_r+0x1cc>)
100033ae:	4293      	cmp	r3, r2
100033b0:	d816      	bhi.n	100033e0 <_free_r+0xd4>
100033b2:	08db      	lsrs	r3, r3, #3
100033b4:	3aff      	subs	r2, #255	; 0xff
100033b6:	1098      	asrs	r0, r3, #2
100033b8:	3aff      	subs	r2, #255	; 0xff
100033ba:	4082      	lsls	r2, r0
100033bc:	6870      	ldr	r0, [r6, #4]
100033be:	00db      	lsls	r3, r3, #3
100033c0:	4302      	orrs	r2, r0
100033c2:	6072      	str	r2, [r6, #4]
100033c4:	199e      	adds	r6, r3, r6
100033c6:	68b3      	ldr	r3, [r6, #8]
100033c8:	60ce      	str	r6, [r1, #12]
100033ca:	608b      	str	r3, [r1, #8]
100033cc:	60b1      	str	r1, [r6, #8]
100033ce:	60d9      	str	r1, [r3, #12]
100033d0:	0028      	movs	r0, r5
100033d2:	f7ff fedf 	bl	10003194 <__malloc_unlock>
100033d6:	bc1c      	pop	{r2, r3, r4}
100033d8:	4690      	mov	r8, r2
100033da:	4699      	mov	r9, r3
100033dc:	46a2      	mov	sl, r4
100033de:	bdf0      	pop	{r4, r5, r6, r7, pc}
100033e0:	0a5c      	lsrs	r4, r3, #9
100033e2:	2c04      	cmp	r4, #4
100033e4:	d83a      	bhi.n	1000345c <_free_r+0x150>
100033e6:	099c      	lsrs	r4, r3, #6
100033e8:	0020      	movs	r0, r4
100033ea:	3439      	adds	r4, #57	; 0x39
100033ec:	3038      	adds	r0, #56	; 0x38
100033ee:	00e4      	lsls	r4, r4, #3
100033f0:	1934      	adds	r4, r6, r4
100033f2:	3c08      	subs	r4, #8
100033f4:	68a2      	ldr	r2, [r4, #8]
100033f6:	2703      	movs	r7, #3
100033f8:	4294      	cmp	r4, r2
100033fa:	d03e      	beq.n	1000347a <_free_r+0x16e>
100033fc:	6850      	ldr	r0, [r2, #4]
100033fe:	43b8      	bics	r0, r7
10003400:	4298      	cmp	r0, r3
10003402:	d902      	bls.n	1000340a <_free_r+0xfe>
10003404:	6892      	ldr	r2, [r2, #8]
10003406:	4294      	cmp	r4, r2
10003408:	d1f8      	bne.n	100033fc <_free_r+0xf0>
1000340a:	68d4      	ldr	r4, [r2, #12]
1000340c:	60cc      	str	r4, [r1, #12]
1000340e:	608a      	str	r2, [r1, #8]
10003410:	60a1      	str	r1, [r4, #8]
10003412:	60d1      	str	r1, [r2, #12]
10003414:	e7dc      	b.n	100033d0 <_free_r+0xc4>
10003416:	2f00      	cmp	r7, #0
10003418:	d155      	bne.n	100034c6 <_free_r+0x1ba>
1000341a:	68c2      	ldr	r2, [r0, #12]
1000341c:	444b      	add	r3, r9
1000341e:	6880      	ldr	r0, [r0, #8]
10003420:	431c      	orrs	r4, r3
10003422:	60c2      	str	r2, [r0, #12]
10003424:	6090      	str	r0, [r2, #8]
10003426:	604c      	str	r4, [r1, #4]
10003428:	50cb      	str	r3, [r1, r3]
1000342a:	e7d1      	b.n	100033d0 <_free_r+0xc4>
1000342c:	444b      	add	r3, r9
1000342e:	423c      	tst	r4, r7
10003430:	d106      	bne.n	10003440 <_free_r+0x134>
10003432:	680a      	ldr	r2, [r1, #0]
10003434:	1a89      	subs	r1, r1, r2
10003436:	6888      	ldr	r0, [r1, #8]
10003438:	189b      	adds	r3, r3, r2
1000343a:	68ca      	ldr	r2, [r1, #12]
1000343c:	60c2      	str	r2, [r0, #12]
1000343e:	6090      	str	r0, [r2, #8]
10003440:	2201      	movs	r2, #1
10003442:	431a      	orrs	r2, r3
10003444:	604a      	str	r2, [r1, #4]
10003446:	4a25      	ldr	r2, [pc, #148]	; (100034dc <_free_r+0x1d0>)
10003448:	60b1      	str	r1, [r6, #8]
1000344a:	6812      	ldr	r2, [r2, #0]
1000344c:	429a      	cmp	r2, r3
1000344e:	d8bf      	bhi.n	100033d0 <_free_r+0xc4>
10003450:	4b23      	ldr	r3, [pc, #140]	; (100034e0 <_free_r+0x1d4>)
10003452:	0028      	movs	r0, r5
10003454:	6819      	ldr	r1, [r3, #0]
10003456:	f7ff ff09 	bl	1000326c <_malloc_trim_r>
1000345a:	e7b9      	b.n	100033d0 <_free_r+0xc4>
1000345c:	2c14      	cmp	r4, #20
1000345e:	d907      	bls.n	10003470 <_free_r+0x164>
10003460:	2c54      	cmp	r4, #84	; 0x54
10003462:	d819      	bhi.n	10003498 <_free_r+0x18c>
10003464:	0b1c      	lsrs	r4, r3, #12
10003466:	0020      	movs	r0, r4
10003468:	346f      	adds	r4, #111	; 0x6f
1000346a:	306e      	adds	r0, #110	; 0x6e
1000346c:	00e4      	lsls	r4, r4, #3
1000346e:	e7bf      	b.n	100033f0 <_free_r+0xe4>
10003470:	0020      	movs	r0, r4
10003472:	345c      	adds	r4, #92	; 0x5c
10003474:	305b      	adds	r0, #91	; 0x5b
10003476:	00e4      	lsls	r4, r4, #3
10003478:	e7ba      	b.n	100033f0 <_free_r+0xe4>
1000347a:	2301      	movs	r3, #1
1000347c:	1080      	asrs	r0, r0, #2
1000347e:	4083      	lsls	r3, r0
10003480:	6870      	ldr	r0, [r6, #4]
10003482:	4303      	orrs	r3, r0
10003484:	6073      	str	r3, [r6, #4]
10003486:	e7c1      	b.n	1000340c <_free_r+0x100>
10003488:	60e1      	str	r1, [r4, #12]
1000348a:	60a1      	str	r1, [r4, #8]
1000348c:	604a      	str	r2, [r1, #4]
1000348e:	4662      	mov	r2, ip
10003490:	60cc      	str	r4, [r1, #12]
10003492:	608c      	str	r4, [r1, #8]
10003494:	6013      	str	r3, [r2, #0]
10003496:	e79b      	b.n	100033d0 <_free_r+0xc4>
10003498:	20aa      	movs	r0, #170	; 0xaa
1000349a:	0040      	lsls	r0, r0, #1
1000349c:	4284      	cmp	r4, r0
1000349e:	d805      	bhi.n	100034ac <_free_r+0x1a0>
100034a0:	0bdc      	lsrs	r4, r3, #15
100034a2:	0020      	movs	r0, r4
100034a4:	3478      	adds	r4, #120	; 0x78
100034a6:	3077      	adds	r0, #119	; 0x77
100034a8:	00e4      	lsls	r4, r4, #3
100034aa:	e7a1      	b.n	100033f0 <_free_r+0xe4>
100034ac:	480d      	ldr	r0, [pc, #52]	; (100034e4 <_free_r+0x1d8>)
100034ae:	4284      	cmp	r4, r0
100034b0:	d805      	bhi.n	100034be <_free_r+0x1b2>
100034b2:	0c9c      	lsrs	r4, r3, #18
100034b4:	0020      	movs	r0, r4
100034b6:	347d      	adds	r4, #125	; 0x7d
100034b8:	307c      	adds	r0, #124	; 0x7c
100034ba:	00e4      	lsls	r4, r4, #3
100034bc:	e798      	b.n	100033f0 <_free_r+0xe4>
100034be:	24fe      	movs	r4, #254	; 0xfe
100034c0:	207e      	movs	r0, #126	; 0x7e
100034c2:	00a4      	lsls	r4, r4, #2
100034c4:	e794      	b.n	100033f0 <_free_r+0xe4>
100034c6:	431c      	orrs	r4, r3
100034c8:	604c      	str	r4, [r1, #4]
100034ca:	6003      	str	r3, [r0, #0]
100034cc:	e780      	b.n	100033d0 <_free_r+0xc4>
100034ce:	46c0      	nop			; (mov r8, r8)
100034d0:	20000640 	.word	0x20000640
100034d4:	20000648 	.word	0x20000648
100034d8:	000001ff 	.word	0x000001ff
100034dc:	2000063c 	.word	0x2000063c
100034e0:	20000a80 	.word	0x20000a80
100034e4:	00000554 	.word	0x00000554

100034e8 <_fini>:
100034e8:	b5f8      	push	{r3, r4, r5, r6, r7, lr}
100034ea:	46c0      	nop			; (mov r8, r8)
100034ec:	0000      	movs	r0, r0
	...

100034f0 <__mutex_exit_veneer>:
100034f0:	b401      	push	{r0}
100034f2:	4802      	ldr	r0, [pc, #8]	; (100034fc <__mutex_exit_veneer+0xc>)
100034f4:	4684      	mov	ip, r0
100034f6:	bc01      	pop	{r0}
100034f8:	4760      	bx	ip
100034fa:	bf00      	nop
100034fc:	20000155 	.word	0x20000155

10003500 <____aeabi_ldiv0_veneer>:
10003500:	b401      	push	{r0}
10003502:	4802      	ldr	r0, [pc, #8]	; (1000350c <____aeabi_ldiv0_veneer+0xc>)
10003504:	4684      	mov	ip, r0
10003506:	bc01      	pop	{r0}
10003508:	4760      	bx	ip
1000350a:	bf00      	nop
1000350c:	2000017d 	.word	0x2000017d

10003510 <____aeabi_idiv0_veneer>:
10003510:	b401      	push	{r0}
10003512:	4802      	ldr	r0, [pc, #8]	; (1000351c <____aeabi_idiv0_veneer+0xc>)
10003514:	4684      	mov	ip, r0
10003516:	bc01      	pop	{r0}
10003518:	4760      	bx	ip
1000351a:	bf00      	nop
1000351c:	2000017d 	.word	0x2000017d

10003520 <__mutex_try_enter_veneer>:
10003520:	b401      	push	{r0}
10003522:	4802      	ldr	r0, [pc, #8]	; (1000352c <__mutex_try_enter_veneer+0xc>)
10003524:	4684      	mov	ip, r0
10003526:	bc01      	pop	{r0}
10003528:	4760      	bx	ip
1000352a:	bf00      	nop
1000352c:	2000010d 	.word	0x2000010d

10003530 <__mutex_enter_blocking_veneer>:
10003530:	b401      	push	{r0}
10003532:	4802      	ldr	r0, [pc, #8]	; (1000353c <__mutex_enter_blocking_veneer+0xc>)
10003534:	4684      	mov	ip, r0
10003536:	bc01      	pop	{r0}
10003538:	4760      	bx	ip
1000353a:	bf00      	nop
1000353c:	200000c1 	.word	0x200000c1

Disassembly of section .data:

200000c0 <mutex_enter_blocking>:
200000c0:	b510      	push	{r4, lr}
200000c2:	6802      	ldr	r2, [r0, #0]
200000c4:	2400      	movs	r4, #0
200000c6:	f3ef 8110 	mrs	r1, PRIMASK
200000ca:	b672      	cpsid	i
200000cc:	6813      	ldr	r3, [r2, #0]
200000ce:	2b00      	cmp	r3, #0
200000d0:	d0fc      	beq.n	200000cc <mutex_enter_blocking+0xc>
200000d2:	f3bf 8f5f 	dmb	sy
200000d6:	7903      	ldrb	r3, [r0, #4]
200000d8:	2b7f      	cmp	r3, #127	; 0x7f
200000da:	d80b      	bhi.n	200000f4 <mutex_enter_blocking+0x34>
200000dc:	6803      	ldr	r3, [r0, #0]
200000de:	f3bf 8f5f 	dmb	sy
200000e2:	601c      	str	r4, [r3, #0]
200000e4:	f381 8810 	msr	PRIMASK, r1
200000e8:	bf20      	wfe
200000ea:	6802      	ldr	r2, [r0, #0]
200000ec:	f3ef 8110 	mrs	r1, PRIMASK
200000f0:	b672      	cpsid	i
200000f2:	e7eb      	b.n	200000cc <mutex_enter_blocking+0xc>
200000f4:	23d0      	movs	r3, #208	; 0xd0
200000f6:	061b      	lsls	r3, r3, #24
200000f8:	681b      	ldr	r3, [r3, #0]
200000fa:	7103      	strb	r3, [r0, #4]
200000fc:	6803      	ldr	r3, [r0, #0]
200000fe:	f3bf 8f5f 	dmb	sy
20000102:	2200      	movs	r2, #0
20000104:	601a      	str	r2, [r3, #0]
20000106:	f381 8810 	msr	PRIMASK, r1
2000010a:	bd10      	pop	{r4, pc}

2000010c <mutex_try_enter>:
2000010c:	0003      	movs	r3, r0
2000010e:	b510      	push	{r4, lr}
20000110:	6800      	ldr	r0, [r0, #0]
20000112:	f3ef 8410 	mrs	r4, PRIMASK
20000116:	b672      	cpsid	i
20000118:	6802      	ldr	r2, [r0, #0]
2000011a:	2a00      	cmp	r2, #0
2000011c:	d0fc      	beq.n	20000118 <mutex_try_enter+0xc>
2000011e:	f3bf 8f5f 	dmb	sy
20000122:	2204      	movs	r2, #4
20000124:	569a      	ldrsb	r2, [r3, r2]
20000126:	2a00      	cmp	r2, #0
20000128:	db0b      	blt.n	20000142 <mutex_try_enter+0x36>
2000012a:	2900      	cmp	r1, #0
2000012c:	d00f      	beq.n	2000014e <mutex_try_enter+0x42>
2000012e:	2000      	movs	r0, #0
20000130:	600a      	str	r2, [r1, #0]
20000132:	681b      	ldr	r3, [r3, #0]
20000134:	f3bf 8f5f 	dmb	sy
20000138:	2200      	movs	r2, #0
2000013a:	601a      	str	r2, [r3, #0]
2000013c:	f384 8810 	msr	PRIMASK, r4
20000140:	bd10      	pop	{r4, pc}
20000142:	22d0      	movs	r2, #208	; 0xd0
20000144:	0612      	lsls	r2, r2, #24
20000146:	6812      	ldr	r2, [r2, #0]
20000148:	2001      	movs	r0, #1
2000014a:	711a      	strb	r2, [r3, #4]
2000014c:	e7f1      	b.n	20000132 <mutex_try_enter+0x26>
2000014e:	2000      	movs	r0, #0
20000150:	e7ef      	b.n	20000132 <mutex_try_enter+0x26>
20000152:	46c0      	nop			; (mov r8, r8)

20000154 <mutex_exit>:
20000154:	6802      	ldr	r2, [r0, #0]
20000156:	f3ef 8110 	mrs	r1, PRIMASK
2000015a:	b672      	cpsid	i
2000015c:	6813      	ldr	r3, [r2, #0]
2000015e:	2b00      	cmp	r3, #0
20000160:	d0fc      	beq.n	2000015c <mutex_exit+0x8>
20000162:	f3bf 8f5f 	dmb	sy
20000166:	23ff      	movs	r3, #255	; 0xff
20000168:	7103      	strb	r3, [r0, #4]
2000016a:	bf40      	sev
2000016c:	6803      	ldr	r3, [r0, #0]
2000016e:	f3bf 8f5f 	dmb	sy
20000172:	2200      	movs	r2, #0
20000174:	601a      	str	r2, [r3, #0]
20000176:	f381 8810 	msr	PRIMASK, r1
2000017a:	4770      	bx	lr

2000017c <__aeabi_idiv0>:
2000017c:	4770      	bx	lr
2000017e:	46c0      	nop			; (mov r8, r8)

20000180 <striped_spin_lock_num>:
20000180:	0010 0000                                   ....

20000184 <irq_handler_chain_slots>:
20000184:	00000000 	.word	0x00000000
20000188:	00010000 	.word	0x00010000
	...
20000194:	00020000 	.word	0x00020000
	...
200001a0:	00030000 	.word	0x00030000
	...
200001ac:	00ff0000 	.word	0x00ff0000
200001b0:	00000000 	.word	0x00000000

200001b4 <irq_handler_chain_first_slot>:
200001b4:	b500      	push	{lr}
200001b6:	6848      	ldr	r0, [r1, #4]
200001b8:	3101      	adds	r1, #1
200001ba:	468e      	mov	lr, r1
200001bc:	4700      	bx	r0

200001be <irq_handler_chain_remove_tail>:
200001be:	4670      	mov	r0, lr
200001c0:	3809      	subs	r0, #9
200001c2:	4901      	ldr	r1, [pc, #4]	; (200001c8 <irq_handler_chain_remove_tail+0xa>)
200001c4:	4788      	blx	r1
200001c6:	bd00      	pop	{pc}
200001c8:	10001f49 	.word	0x10001f49
200001cc:	00000000 	.word	0x00000000

200001d0 <aeabi_bits_funcs>:
200001d0:	00003350 	.word	0x00003350
200001d4:	0000334c 	.word	0x0000334c
200001d8:	00003354 	.word	0x00003354
200001dc:	00003352 	.word	0x00003352

200001e0 <aeabi_bits_funcs_end>:
200001e0:	0000534d 	.word	0x0000534d
200001e4:	0000434d 	.word	0x0000434d
200001e8:	00003453 	.word	0x00003453
200001ec:	00003443 	.word	0x00003443

200001f0 <stdio_uart>:
200001f0:	10002a7d 00000000 10002ab9 00000000     }*.......*......
20000200:	00000100 00000000                       ........

20000208 <_impure_ptr>:
20000208:	20000210 00000000                       ... ....

20000210 <impure_data>:
20000210:	00000000 200004fc 20000564 200005cc     ....... d.. ... 
	...
200002b8:	00000001 00000000 abcd330e e66d1234     .........3..4.m.
200002c8:	0005deec 0000000b 00000000 00000000     ................
	...

20000638 <__malloc_sbrk_base>:
20000638:	ffffffff                                ....

2000063c <__malloc_trim_threshold>:
2000063c:	00020000                                ....

20000640 <__malloc_av_>:
	...
20000648:	20000640 20000640 20000648 20000648     @.. @.. H.. H.. 
20000658:	20000650 20000650 20000658 20000658     P.. P.. X.. X.. 
20000668:	20000660 20000660 20000668 20000668     `.. `.. h.. h.. 
20000678:	20000670 20000670 20000678 20000678     p.. p.. x.. x.. 
20000688:	20000680 20000680 20000688 20000688     ... ... ... ... 
20000698:	20000690 20000690 20000698 20000698     ... ... ... ... 
200006a8:	200006a0 200006a0 200006a8 200006a8     ... ... ... ... 
200006b8:	200006b0 200006b0 200006b8 200006b8     ... ... ... ... 
200006c8:	200006c0 200006c0 200006c8 200006c8     ... ... ... ... 
200006d8:	200006d0 200006d0 200006d8 200006d8     ... ... ... ... 
200006e8:	200006e0 200006e0 200006e8 200006e8     ... ... ... ... 
200006f8:	200006f0 200006f0 200006f8 200006f8     ... ... ... ... 
20000708:	20000700 20000700 20000708 20000708     ... ... ... ... 
20000718:	20000710 20000710 20000718 20000718     ... ... ... ... 
20000728:	20000720 20000720 20000728 20000728      ..  .. (.. (.. 
20000738:	20000730 20000730 20000738 20000738     0.. 0.. 8.. 8.. 
20000748:	20000740 20000740 20000748 20000748     @.. @.. H.. H.. 
20000758:	20000750 20000750 20000758 20000758     P.. P.. X.. X.. 
20000768:	20000760 20000760 20000768 20000768     `.. `.. h.. h.. 
20000778:	20000770 20000770 20000778 20000778     p.. p.. x.. x.. 
20000788:	20000780 20000780 20000788 20000788     ... ... ... ... 
20000798:	20000790 20000790 20000798 20000798     ... ... ... ... 
200007a8:	200007a0 200007a0 200007a8 200007a8     ... ... ... ... 
200007b8:	200007b0 200007b0 200007b8 200007b8     ... ... ... ... 
200007c8:	200007c0 200007c0 200007c8 200007c8     ... ... ... ... 
200007d8:	200007d0 200007d0 200007d8 200007d8     ... ... ... ... 
200007e8:	200007e0 200007e0 200007e8 200007e8     ... ... ... ... 
200007f8:	200007f0 200007f0 200007f8 200007f8     ... ... ... ... 
20000808:	20000800 20000800 20000808 20000808     ... ... ... ... 
20000818:	20000810 20000810 20000818 20000818     ... ... ... ... 
20000828:	20000820 20000820 20000828 20000828      ..  .. (.. (.. 
20000838:	20000830 20000830 20000838 20000838     0.. 0.. 8.. 8.. 
20000848:	20000840 20000840 20000848 20000848     @.. @.. H.. H.. 
20000858:	20000850 20000850 20000858 20000858     P.. P.. X.. X.. 
20000868:	20000860 20000860 20000868 20000868     `.. `.. h.. h.. 
20000878:	20000870 20000870 20000878 20000878     p.. p.. x.. x.. 
20000888:	20000880 20000880 20000888 20000888     ... ... ... ... 
20000898:	20000890 20000890 20000898 20000898     ... ... ... ... 
200008a8:	200008a0 200008a0 200008a8 200008a8     ... ... ... ... 
200008b8:	200008b0 200008b0 200008b8 200008b8     ... ... ... ... 
200008c8:	200008c0 200008c0 200008c8 200008c8     ... ... ... ... 
200008d8:	200008d0 200008d0 200008d8 200008d8     ... ... ... ... 
200008e8:	200008e0 200008e0 200008e8 200008e8     ... ... ... ... 
200008f8:	200008f0 200008f0 200008f8 200008f8     ... ... ... ... 
20000908:	20000900 20000900 20000908 20000908     ... ... ... ... 
20000918:	20000910 20000910 20000918 20000918     ... ... ... ... 
20000928:	20000920 20000920 20000928 20000928      ..  .. (.. (.. 
20000938:	20000930 20000930 20000938 20000938     0.. 0.. 8.. 8.. 
20000948:	20000940 20000940 20000948 20000948     @.. @.. H.. H.. 
20000958:	20000950 20000950 20000958 20000958     P.. P.. X.. X.. 
20000968:	20000960 20000960 20000968 20000968     `.. `.. h.. h.. 
20000978:	20000970 20000970 20000978 20000978     p.. p.. x.. x.. 
20000988:	20000980 20000980 20000988 20000988     ... ... ... ... 
20000998:	20000990 20000990 20000998 20000998     ... ... ... ... 
200009a8:	200009a0 200009a0 200009a8 200009a8     ... ... ... ... 
200009b8:	200009b0 200009b0 200009b8 200009b8     ... ... ... ... 
200009c8:	200009c0 200009c0 200009c8 200009c8     ... ... ... ... 
200009d8:	200009d0 200009d0 200009d8 200009d8     ... ... ... ... 
200009e8:	200009e0 200009e0 200009e8 200009e8     ... ... ... ... 
200009f8:	200009f0 200009f0 200009f8 200009f8     ... ... ... ... 
20000a08:	20000a00 20000a00 20000a08 20000a08     ... ... ... ... 
20000a18:	20000a10 20000a10 20000a18 20000a18     ... ... ... ... 
20000a28:	20000a20 20000a20 20000a28 20000a28      ..  .. (.. (.. 
20000a38:	20000a30 20000a30 20000a38 20000a38     0.. 0.. 8.. 8.. 

20000a48 <print_mutex>:
	...

20000a50 <__mutex_array_end>:
20000a50:	10002835 	.word	0x10002835
20000a54:	1000207d 	.word	0x1000207d
20000a58:	100025c5 	.word	0x100025c5
20000a5c:	10002795 	.word	0x10002795

20000a60 <__frame_dummy_init_array_entry>:
20000a60:	10000339                                9...
